

Microchip MPLAB XC8 Assembler V2.45 build 20230818022343 
                                                                                               Thu Sep 12 23:54:08 2024

Microchip MPLAB XC8 C Compiler v2.45 (Free license) build 20230818022343 Og1 
     1                           	processor	18F4620
     2                           	fnconf	rparam,??,?,0
     3                           	pagewidth 120
     4                           	opt	flic
     5                           	psect	idataCOMRAM,global,class=CODE,delta=1,noexec
     6                           	psect	smallconst,global,reloc=2,class=SMALLCONST,delta=1,noexec
     7                           	psect	cinit,global,reloc=2,class=CODE,delta=1
     8                           	psect	bssCOMRAM,global,class=COMRAM,space=1,delta=1,lowdata,noexec
     9                           	psect	dataCOMRAM,global,class=COMRAM,space=1,delta=1,lowdata,noexec
    10                           	psect	cstackCOMRAM,global,class=COMRAM,space=1,delta=1,lowdata,noexec
    11                           	psect	text0,global,reloc=2,class=CODE,delta=1
    12                           	psect	text1,global,reloc=2,class=CODE,delta=1
    13                           	psect	text2,global,reloc=2,class=CODE,delta=1
    14                           	psect	text3,global,reloc=2,class=CODE,delta=1
    15                           	psect	text4,global,reloc=2,class=CODE,delta=1
    16                           	psect	text5,global,reloc=2,class=CODE,delta=1
    17                           	psect	text6,global,reloc=2,class=CODE,delta=1
    18                           	psect	text7,global,reloc=2,class=CODE,delta=1
    19                           	psect	text8,global,reloc=2,class=CODE,delta=1
    20                           	psect	text9,global,reloc=2,class=CODE,delta=1
    21                           	psect	text10,global,reloc=2,class=CODE,delta=1
    22                           	psect	text11,global,reloc=2,class=CODE,delta=1
    23                           	psect	text12,global,reloc=2,class=CODE,delta=1
    24                           	psect	text13,global,reloc=2,class=CODE,delta=1
    25                           	psect	text14,global,reloc=2,class=CODE,delta=1
    26                           	psect	text15,global,reloc=2,class=CODE,delta=1
    27                           	psect	text16,global,reloc=2,class=CODE,delta=1
    28                           	psect	text17,global,reloc=2,class=CODE,delta=1
    29                           	psect	text18,global,reloc=2,class=CODE,delta=1
    30                           	psect	text19,global,reloc=2,class=CODE,delta=1
    31                           	psect	text20,global,reloc=2,class=CODE,delta=1
    32                           	psect	text21,global,reloc=2,class=CODE,delta=1
    33                           	psect	text22,global,reloc=2,class=CODE,delta=1
    34                           	psect	text23,global,reloc=2,class=CODE,delta=1,inline
    35                           	psect	text24,global,reloc=2,class=CODE,delta=1,inline
    36                           	psect	text25,global,reloc=2,class=CODE,delta=1,inline
    37                           	psect	text26,global,reloc=2,class=CODE,delta=1,group=1
    38                           	psect	text27,global,reloc=2,class=CODE,delta=1,group=1
    39                           	psect	intcode,global,reloc=2,class=CODE,delta=1
    40                           	psect	intcode_body,global,reloc=2,class=CODE,delta=1
    41                           	psect	text29,global,reloc=2,class=CODE,delta=1
    42                           	psect	text30,global,reloc=2,class=CODE,delta=1
    43                           	psect	intsave_regs,global,class=BIGRAM,space=1,delta=1,noexec
    44                           	psect	text31,global,reloc=2,class=CODE,delta=1
    45                           	psect	rparam,global,class=COMRAM,space=1,delta=1,noexec
    46                           	psect	temp,global,ovrld,common,class=COMRAM,space=1,delta=1
    47   000000                     
    48                           ; Generated 23/03/2023 GMT
    49                           ; 
    50                           ; Copyright © 2023, Microchip Technology Inc. and its subsidiaries ("Microchip")
    51                           ; All rights reserved.
    52                           ; 
    53                           ; This software is developed by Microchip Technology Inc. and its subsidiaries ("Microch
      +                          ip").
    54                           ; 
    55                           ; Redistribution and use in source and binary forms, with or without modification, are
    56                           ; permitted provided that the following conditions are met:
    57                           ; 
    58                           ;     1. Redistributions of source code must retain the above copyright notice, this lis
      +                          t of
    59                           ;        conditions and the following disclaimer.
    60                           ; 
    61                           ;     2. Redistributions in binary form must reproduce the above copyright notice, this 
      +                          list
    62                           ;        of conditions and the following disclaimer in the documentation and/or other
    63                           ;        materials provided with the distribution. Publication is not required when
    64                           ;        this file is used in an embedded application.
    65                           ; 
    66                           ;     3. Microchip's name may not be used to endorse or promote products derived from th
      +                          is
    67                           ;        software without specific prior written permission.
    68                           ; 
    69                           ; THIS SOFTWARE IS PROVIDED BY MICROCHIP "AS IS" AND ANY EXPRESS OR IMPLIED WARRANTIES,
    70                           ; INCLUDING, BUT NOT LIMITED TO, THE IMPLIED WARRANTIES OF MERCHANTABILITY AND FITNESS F
      +                          OR
    71                           ; PURPOSE ARE DISCLAIMED.  IN NO EVENT SHALL MICROCHIP BE LIABLE FOR ANY DIRECT, INDIREC
      +                          T,
    72                           ; INCIDENTAL, SPECIAL, EXEMPLARY, OR CONSEQUENTIAL DAMAGES (INCLUDING BUT NOT LIMITED TO
    73                           ; PROCUREMENT OF SUBSTITUTE GOODS OR SERVICES; LOSS OF USE, DATA OR PROFITS; OR BUSINESS
    74                           ; INTERRUPTION) HOWSOEVER CAUSED AND ON ANY THEORY OF LIABILITY, WHETHER IN CONTRACT, ST
      +                          RICT
    75                           ; LIABILITY, OR TORT (INCLUDING NEGLIGENCE OR OTHERWISE) ARISING IN ANY WAY OUT OF THE U
      +                          SE OF
    76                           ; THIS SOFTWARE, EVEN IF ADVISED OF THE POSSIBILITY OF SUCH DAMAGE.
    77                           ; 
    78                           ; 
    79                           ; Code-generator required, PIC18F4620 Definitions
    80                           ; 
    81                           ; SFR Addresses
    82   000000                     
    83                           	psect	idataCOMRAM
    84   00210E                     __pidataCOMRAM:
    85                           	callstack 0
    86                           
    87                           ;initializer for _port_reg
    88   00210E  80                 	db	128
    89   00210F  0F                 	db	15
    90   002110  81                 	db	129
    91   002111  0F                 	db	15
    92   002112  82                 	db	130
    93   002113  0F                 	db	15
    94   002114  83                 	db	131
    95   002115  0F                 	db	15
    96   002116  84                 	db	132
    97   002117  0F                 	db	15
    98                           
    99                           ;initializer for _lat_reg
   100   002118  89                 	db	137
   101   002119  0F                 	db	15
   102   00211A  8A                 	db	138
   103   00211B  0F                 	db	15
   104   00211C  8B                 	db	139
   105   00211D  0F                 	db	15
   106   00211E  8C                 	db	140
   107   00211F  0F                 	db	15
   108   002120  8D                 	db	141
   109   002121  0F                 	db	15
   110                           
   111                           ;initializer for _tris_reg
   112   002122  92                 	db	146
   113   002123  0F                 	db	15
   114   002124  93                 	db	147
   115   002125  0F                 	db	15
   116   002126  94                 	db	148
   117   002127  0F                 	db	15
   118   002128  95                 	db	149
   119   002129  0F                 	db	15
   120   00212A  96                 	db	150
   121   00212B  0F                 	db	15
   122                           
   123                           ;initializer for _RB7_flag
   124   00212C  01                 	db	1
   125                           
   126                           ;initializer for _RB6_flag
   127   00212D  01                 	db	1
   128                           
   129                           ;initializer for _RB5_flag
   130   00212E  01                 	db	1
   131                           
   132                           ;initializer for _RB4_flag
   133   00212F  01                 	db	1
   134                           
   135                           ;initializer for _key_pad
   136   002130  03                 	db	3
   137   002131  0B                 	db	11
   138   002132  13                 	db	19
   139   002133  1B                 	db	27
   140   002134  A3                 	db	163
   141   002135  AB                 	db	171
   142   002136  B3                 	db	179
   143   002137  BB                 	db	187
   144                           
   145                           ;initializer for _timer_0
   146   002138  10                 	db	low _Interrupt_handler
   147   002139  23                 	db	high _Interrupt_handler
   148   00213A  00                 	db	0
   149   00213B  04                 	db	4
   150   00213C  0BDC               	dw	3036
   151   00213E  05                 	db	5
   152                           
   153                           ;initializer for _lcd_1
   154   00213F  02                 	db	2
   155   002140  0A                 	db	10
   156   002141  12                 	db	18
   157   002142  1A                 	db	26
   158   002143  22                 	db	34
   159   002144  2A                 	db	42
   160                           
   161                           ;initializer for _seg_1
   162   002145  00                 	db	0
   163   002146  08                 	db	8
   164   002147  10                 	db	16
   165   002148  18                 	db	24
   166   002149  00                 	db	0
   167                           
   168                           	psect	smallconst
   169   001000                     __psmallconst:
   170                           	callstack 0
   171   001000  00                 	db	0
   172   001001                     _btn_values:
   173                           	callstack 0
   174   001001  37                 	db	55
   175   001002  38                 	db	56
   176   001003  39                 	db	57
   177   001004  2F                 	db	47
   178   001005  34                 	db	52
   179   001006  35                 	db	53
   180   001007  36                 	db	54
   181   001008  2A                 	db	42
   182   001009  31                 	db	49
   183   00100A  32                 	db	50
   184   00100B  33                 	db	51
   185   00100C  2D                 	db	45
   186   00100D  23                 	db	35
   187   00100E  30                 	db	48
   188   00100F  3D                 	db	61
   189   001010  2B                 	db	43
   190   001011                     __end_of_btn_values:
   191                           	callstack 0
   192   000000                     _TMR0L	set	4054
   193   000000                     _TMR0H	set	4055
   194   000000                     _PORTE	set	3972
   195   000000                     _PORTD	set	3971
   196   000000                     _PORTC	set	3970
   197   000000                     _PORTB	set	3969
   198   000000                     _PORTA	set	3968
   199   000000                     _LATA	set	3977
   200   000000                     _TRISA	set	3986
   201   000000                     _T0CONbits	set	4053
   202   000000                     _INTCONbits	set	4082
   203   000000                     _TRISE	set	3990
   204   000000                     _TRISD	set	3989
   205   000000                     _TRISC	set	3988
   206   000000                     _TRISB	set	3987
   207   000000                     _LATE	set	3981
   208   000000                     _LATD	set	3980
   209   000000                     _LATC	set	3979
   210   000000                     _LATB	set	3978
   211   001011                     STR_4:
   212   001011  50                 	db	80	;'P'
   213   001012  72                 	db	114	;'r'
   214   001013  65                 	db	101	;'e'
   215   001014  73                 	db	115	;'s'
   216   001015  73                 	db	115	;'s'
   217   001016  20                 	db	32
   218   001017  31                 	db	49	;'1'
   219   001018  20                 	db	32
   220   001019  74                 	db	116	;'t'
   221   00101A  6F                 	db	111	;'o'
   222   00101B  20                 	db	32
   223   00101C  73                 	db	115	;'s'
   224   00101D  65                 	db	101	;'e'
   225   00101E  74                 	db	116	;'t'
   226   00101F  20                 	db	32
   227   001020  63                 	db	99	;'c'
   228   001021  6C                 	db	108	;'l'
   229   001022  6F                 	db	111	;'o'
   230   001023  63                 	db	99	;'c'
   231   001024  6B                 	db	107	;'k'
   232   001025  00                 	db	0
   233   001026                     STR_9:
   234   001026  57                 	db	87	;'W'
   235   001027  72                 	db	114	;'r'
   236   001028  6F                 	db	111	;'o'
   237   001029  6E                 	db	110	;'n'
   238   00102A  67                 	db	103	;'g'
   239   00102B  20                 	db	32
   240   00102C  63                 	db	99	;'c'
   241   00102D  68                 	db	104	;'h'
   242   00102E  6F                 	db	111	;'o'
   243   00102F  69                 	db	105	;'i'
   244   001030  63                 	db	99	;'c'
   245   001031  65                 	db	101	;'e'
   246   001032  00                 	db	0
   247   001033                     STR_7:
   248   001033  53                 	db	83	;'S'
   249   001034  65                 	db	101	;'e'
   250   001035  63                 	db	99	;'c'
   251   001036  6F                 	db	111	;'o'
   252   001037  6E                 	db	110	;'n'
   253   001038  64                 	db	100	;'d'
   254   001039  73                 	db	115	;'s'
   255   00103A  3A                 	db	58	;':'
   256   00103B  2D                 	db	45
   257   00103C  2D                 	db	45
   258   00103D  00                 	db	0
   259   00103E                     STR_6:
   260   00103E  4D                 	db	77	;'M'
   261   00103F  69                 	db	105	;'i'
   262   001040  6E                 	db	110	;'n'
   263   001041  75                 	db	117	;'u'
   264   001042  74                 	db	116	;'t'
   265   001043  65                 	db	101	;'e'
   266   001044  73                 	db	115	;'s'
   267   001045  3A                 	db	58	;':'
   268   001046  2D                 	db	45
   269   001047  2D                 	db	45
   270   001048  00                 	db	0
   271   001049                     STR_5:
   272   001049  48                 	db	72	;'H'
   273   00104A  6F                 	db	111	;'o'
   274   00104B  75                 	db	117	;'u'
   275   00104C  72                 	db	114	;'r'
   276   00104D  73                 	db	115	;'s'
   277   00104E  3A                 	db	58	;':'
   278   00104F  2D                 	db	45
   279   001050  2D                 	db	45
   280   001051  00                 	db	0
   281   001052                     STR_1:
   282   001052  25                 	db	37
   283   001053  69                 	db	105	;'i'
   284   001054  00                 	db	0
   285   001055  00                 	db	0	; dummy byte at the end
   286   000000                     
   287                           ; #config settings
   288                           
   289                           	psect	cinit
   290   0021FA                     __pcinit:
   291                           	callstack 0
   292   0021FA                     start_initialization:
   293                           	callstack 0
   294   0021FA                     __initialization:
   295                           	callstack 0
   296                           
   297                           ; Initialize objects allocated to COMRAM (60 bytes)
   298                           ; load TBLPTR registers with __pidataCOMRAM
   299   0021FA  0E0E               	movlw	low __pidataCOMRAM
   300   0021FC  6EF6               	movwf	tblptrl,c
   301   0021FE  0E21               	movlw	high __pidataCOMRAM
   302   002200  6EF7               	movwf	tblptrh,c
   303   002202  0E00               	movlw	low (__pidataCOMRAM shr (0+16))
   304   002204  6EF8               	movwf	tblptru,c
   305   002206  EE00  F001         	lfsr	0,__pdataCOMRAM
   306   00220A  EE10 F03C          	lfsr	1,60
   307   00220E                     copy_data0:
   308   00220E  0009               	tblrd		*+
   309   002210  CFF5 FFEE          	movff	tablat,postinc0
   310   002214  50E5               	movf	postdec1,w,c
   311   002216  50E1               	movf	fsr1l,w,c
   312   002218  E1FA               	bnz	copy_data0
   313                           
   314                           ; Clear objects allocated to COMRAM (17 bytes)
   315   00221A  EE00  F05A         	lfsr	0,__pbssCOMRAM
   316   00221E  0E11               	movlw	17
   317   002220                     clear_0:
   318   002220  6AEE               	clrf	postinc0,c
   319   002222  06E8               	decf	wreg,f,c
   320   002224  E1FD               	bnz	clear_0
   321   002226                     end_of_initialization:
   322                           	callstack 0
   323   002226                     __end_of__initialization:
   324                           	callstack 0
   325   002226  906B               	bcf	int$flags,0,c	;clear compiler interrupt flag (level 1)
   326   002228  926B               	bcf	int$flags,1,c	;clear compiler interrupt flag (level 2)
   327   00222A  0100               	movlb	0
   328   00222C  EF2B  F008         	goto	_main	;jump to C main() function
   329                           
   330                           	psect	bssCOMRAM
   331   00005A                     __pbssCOMRAM:
   332                           	callstack 0
   333   00005A                     	ds	6
   334   000060                     _TMR0_InterruptHandler:
   335                           	callstack 0
   336   000060                     	ds	2
   337   000062                     _timer0_preload:
   338                           	callstack 0
   339   000062                     	ds	2
   340   000064                     _hour:
   341                           	callstack 0
   342   000064                     	ds	1
   343   000065                     _min:
   344                           	callstack 0
   345   000065                     	ds	1
   346   000066                     _sec:
   347                           	callstack 0
   348   000066                     	ds	1
   349   000067                     _lcd1_counter:
   350                           	callstack 0
   351   000067                     	ds	1
   352   000068                     _digit_two:
   353                           	callstack 0
   354   000068                     	ds	1
   355   000069                     _digit_one:
   356                           	callstack 0
   357   000069                     	ds	1
   358   00006A                     _keypad_Value:
   359                           	callstack 0
   360   00006A                     	ds	1
   361                           
   362                           	psect	dataCOMRAM
   363   000001                     __pdataCOMRAM:
   364                           	callstack 0
   365   000001                     _port_reg:
   366                           	callstack 0
   367   000001                     	ds	10
   368   00000B                     _lat_reg:
   369                           	callstack 0
   370   00000B                     	ds	10
   371   000015                     _tris_reg:
   372                           	callstack 0
   373   000015                     	ds	10
   374   00001F                     _RB7_flag:
   375                           	callstack 0
   376   00001F                     	ds	1
   377   000020                     _RB6_flag:
   378                           	callstack 0
   379   000020                     	ds	1
   380   000021                     _RB5_flag:
   381                           	callstack 0
   382   000021                     	ds	1
   383   000022                     _RB4_flag:
   384                           	callstack 0
   385   000022                     	ds	1
   386   000023                     _key_pad:
   387                           	callstack 0
   388   000023                     	ds	8
   389   00002B                     _timer_0:
   390                           	callstack 0
   391   00002B                     	ds	7
   392   000032                     _lcd_1:
   393                           	callstack 0
   394   000032                     	ds	6
   395   000038                     _seg_1:
   396                           	callstack 0
   397   000038                     	ds	5
   398                           
   399                           	psect	cstackCOMRAM
   400   00003D                     __pcstackCOMRAM:
   401                           	callstack 0
   402   00003D                     ??_InterruptManagerHigh:
   403   00003D                     
   404                           ; 2 bytes @ 0x0
   405   00003D                     	ds	2
   406   00003F                     ?___awdiv:
   407                           	callstack 0
   408   00003F                     ?___awmod:
   409                           	callstack 0
   410   00003F                     gpio_pin_direction_initialize@_pin_config:
   411                           	callstack 0
   412   00003F                     gpio_pin_write_logic@_pin_config:
   413                           	callstack 0
   414   00003F                     gpio_pin_read_logic@_pin_config:
   415                           	callstack 0
   416   00003F                     gpio_port_direction_initialize@direction:
   417                           	callstack 0
   418   00003F                     Timer0_Prescaler_Config@_timer:
   419                           	callstack 0
   420   00003F                     Timer0_Mode_Select@_timer:
   421                           	callstack 0
   422   00003F                     Timer0_Register_Size_Config@_timer:
   423                           	callstack 0
   424   00003F                     ___awdiv@dividend:
   425                           	callstack 0
   426   00003F                     ___awmod@dividend:
   427                           	callstack 0
   428                           
   429                           ; 2 bytes @ 0x2
   430   00003F                     	ds	1
   431   000040                     ??_gpio_pin_direction_initialize:
   432   000040                     ??_Timer0_Prescaler_Config:
   433   000040                     ??_gpio_port_direction_initialize:
   434   000040                     gpio_pin_write_logic@logic:
   435                           	callstack 0
   436   000040                     gpio_pin_read_logic@logic:
   437                           	callstack 0
   438                           
   439                           ; 1 bytes @ 0x3
   440   000040                     	ds	1
   441   000041                     ??_gpio_pin_write_logic:
   442   000041                     ??_gpio_pin_read_logic:
   443   000041                     Timer0_Init@_timer:
   444                           	callstack 0
   445   000041                     ___awdiv@divisor:
   446                           	callstack 0
   447   000041                     ___awmod@divisor:
   448                           	callstack 0
   449                           
   450                           ; 2 bytes @ 0x4
   451   000041                     	ds	1
   452   000042                     ??_Timer0_Init:
   453   000042                     gpio_port_direction_initialize@ret:
   454                           	callstack 0
   455                           
   456                           ; 1 bytes @ 0x5
   457   000042                     	ds	1
   458   000043                     gpio_port_direction_initialize@port:
   459                           	callstack 0
   460   000043                     ___awdiv@counter:
   461                           	callstack 0
   462   000043                     ___awmod@counter:
   463                           	callstack 0
   464                           
   465                           ; 1 bytes @ 0x6
   466   000043                     	ds	1
   467   000044                     Timer0_Init@ret:
   468                           	callstack 0
   469   000044                     ___awdiv@sign:
   470                           	callstack 0
   471   000044                     ___awmod@sign:
   472                           	callstack 0
   473                           
   474                           ; 1 bytes @ 0x7
   475   000044                     	ds	1
   476   000045                     gpio_pin_direction_initialize@ret:
   477                           	callstack 0
   478   000045                     gpio_pin_read_logic@ret:
   479                           	callstack 0
   480   000045                     ___awdiv@quotient:
   481                           	callstack 0
   482                           
   483                           ; 2 bytes @ 0x8
   484   000045                     	ds	1
   485   000046                     gpio_pin_write_logic@ret:
   486                           	callstack 0
   487                           
   488                           ; 1 bytes @ 0x9
   489   000046                     	ds	1
   490   000047                     keypad_get_value@_keypad_obj:
   491                           	callstack 0
   492   000047                     lcd_send_4bits@lcd:
   493                           	callstack 0
   494   000047                     lcd_4bits_sned_enable_signal@lcd:
   495                           	callstack 0
   496   000047                     lcd_8bits_sned_enable_signal@lcd:
   497                           	callstack 0
   498   000047                     gpio_port_write_logic@logic:
   499                           	callstack 0
   500   000047                     gpio_pin__initialize@_pin_config:
   501                           	callstack 0
   502                           
   503                           ; 1 bytes @ 0xA
   504   000047                     	ds	1
   505   000048                     ??_gpio_pin__initialize:
   506   000048                     ??_gpio_port_write_logic:
   507   000048                     keypad_get_value@value:
   508                           	callstack 0
   509   000048                     lcd_send_4bits@_data_command:
   510                           	callstack 0
   511   000048                     lcd_8bits_sned_enable_signal@ret:
   512                           	callstack 0
   513                           
   514                           ; 1 bytes @ 0xB
   515   000048                     	ds	1
   516   000049                     ??_keypad_get_value:
   517   000049                     lcd_8bit_send_command@lcd:
   518                           	callstack 0
   519   000049                     lcd_send_4bits@ret:
   520                           	callstack 0
   521   000049                     gpio_pin__initialize@ret:
   522                           	callstack 0
   523                           
   524                           ; 1 bytes @ 0xC
   525   000049                     	ds	1
   526   00004A                     keypad_initialize@_keypad_obj:
   527                           	callstack 0
   528   00004A                     keypad_get_value@ret:
   529                           	callstack 0
   530   00004A                     lcd_4bit_send_command@lcd:
   531                           	callstack 0
   532   00004A                     lcd_4bit_send_char_data@lcd:
   533                           	callstack 0
   534   00004A                     lcd_8bit_send_command@command:
   535                           	callstack 0
   536   00004A                     sev_seg_initialize@seg:
   537                           	callstack 0
   538   00004A                     gpio_port_write_logic@ret:
   539                           	callstack 0
   540                           
   541                           ; 1 bytes @ 0xD
   542   00004A                     	ds	1
   543   00004B                     ??_lcd_8bit_send_command:
   544   00004B                     keypad_initialize@ret:
   545                           	callstack 0
   546   00004B                     keypad_get_value@column_logic:
   547                           	callstack 0
   548   00004B                     lcd_4bit_send_command@command:
   549                           	callstack 0
   550   00004B                     lcd_4bit_send_char_data@data:
   551                           	callstack 0
   552   00004B                     sev_seg_initialize@ret:
   553                           	callstack 0
   554   00004B                     gpio_port_write_logic@port:
   555                           	callstack 0
   556                           
   557                           ; 1 bytes @ 0xE
   558   00004B                     	ds	1
   559   00004C                     keypad_initialize@rows_counter:
   560                           	callstack 0
   561   00004C                     keypad_get_value@l_counter:
   562                           	callstack 0
   563   00004C                     lcd_4bit_send_command@ret:
   564                           	callstack 0
   565   00004C                     lcd_4bit_send_char_data@ret:
   566                           	callstack 0
   567                           
   568                           ; 1 bytes @ 0xF
   569   00004C                     	ds	1
   570   00004D                     keypad_initialize@columns_counter:
   571                           	callstack 0
   572   00004D                     keypad_get_value@l_rows_counter:
   573                           	callstack 0
   574   00004D                     lcd_4bit_send_string@lcd:
   575                           	callstack 0
   576   00004D                     lcd_8bit_send_command@ret:
   577                           	callstack 0
   578   00004D                     lcd_4bits_set_cursor@lcd:
   579                           	callstack 0
   580                           
   581                           ; 1 bytes @ 0x10
   582   00004D                     	ds	1
   583   00004E                     keypad_get_value@l_columns_counter:
   584                           	callstack 0
   585   00004E                     lcd_4bit_send_string@str:
   586                           	callstack 0
   587   00004E                     lcd_8bit_send_command@l_pin_counter:
   588                           	callstack 0
   589   00004E                     lcd_4bits_set_cursor@row:
   590                           	callstack 0
   591                           
   592                           ; 1 bytes @ 0x11
   593   00004E                     	ds	1
   594   00004F                     lcd_4bit_initialize@lcd:
   595                           	callstack 0
   596   00004F                     lcd_4bit_send_string@ret:
   597                           	callstack 0
   598   00004F                     lcd_4bits_set_cursor@column:
   599                           	callstack 0
   600                           
   601                           ; 1 bytes @ 0x12
   602   00004F                     	ds	1
   603   000050                     ??_lcd_4bits_set_cursor:
   604   000050                     ??_lcd_4bit_initialize:
   605                           
   606                           ; 1 bytes @ 0x13
   607   000050                     	ds	1
   608   000051                     lcd_4bit_initialize@l_data_pins_counter:
   609                           	callstack 0
   610                           
   611                           ; 1 bytes @ 0x14
   612   000051                     	ds	1
   613   000052                     lcd_4bit_initialize@ret:
   614                           	callstack 0
   615   000052                     lcd_4bits_set_cursor@ret:
   616                           	callstack 0
   617                           
   618                           ; 1 bytes @ 0x15
   619   000052                     	ds	1
   620   000053                     lcd_4bit_send_char_data_pos@lcd:
   621                           	callstack 0
   622   000053                     lcd_4bit_send_string_pos@lcd:
   623                           	callstack 0
   624                           
   625                           ; 1 bytes @ 0x16
   626   000053                     	ds	1
   627   000054                     lcd_4bit_send_char_data_pos@row:
   628                           	callstack 0
   629   000054                     lcd_4bit_send_string_pos@row:
   630                           	callstack 0
   631                           
   632                           ; 1 bytes @ 0x17
   633   000054                     	ds	1
   634   000055                     lcd_4bit_send_char_data_pos@column:
   635                           	callstack 0
   636   000055                     lcd_4bit_send_string_pos@column:
   637                           	callstack 0
   638                           
   639                           ; 1 bytes @ 0x18
   640   000055                     	ds	1
   641   000056                     lcd_4bit_send_char_data_pos@data:
   642                           	callstack 0
   643   000056                     lcd_4bit_send_string_pos@str:
   644                           	callstack 0
   645                           
   646                           ; 1 bytes @ 0x19
   647   000056                     	ds	1
   648   000057                     lcd_4bit_send_char_data_pos@ret:
   649                           	callstack 0
   650   000057                     lcd_4bit_send_string_pos@ret:
   651                           	callstack 0
   652                           
   653                           ; 1 bytes @ 0x1A
   654   000057                     	ds	1
   655   000058                     ??_main:
   656                           
   657                           ; 1 bytes @ 0x1B
   658   000058                     	ds	2
   659                           
   660 ;;
   661 ;;Main: autosize = 0, tempsize = 2, incstack = 0, save=0
   662 ;;
   663 ;; *************** function _main *****************
   664 ;; Defined at:
   665 ;;		line 92 in file "application.c"
   666 ;; Parameters:    Size  Location     Type
   667 ;;		None
   668 ;; Auto vars:     Size  Location     Type
   669 ;;  ret             1    0        unsigned char 
   670 ;; Return value:  Size  Location     Type
   671 ;;                  2  470[None  ] int 
   672 ;; Registers used:
   673 ;;		wreg, fsr1l, fsr1h, fsr2l, fsr2h, status,2, status,0, tblptrl, tblptrh, tblptru, prodl, prodh, cstack
   674 ;; Tracked objects:
   675 ;;		On entry : 0/0
   676 ;;		On exit  : 0/0
   677 ;;		Unchanged: 0/0
   678 ;; Data sizes:     COMRAM   BANK0   BANK1   BANK2   BANK3   BANK4   BANK5   BANK6   BANK7   BANK8   BANK9  BANK10  BANK1
      +1  BANK12  BANK13  BANK14  BANK15
   679 ;;      Params:         0       0       0       0       0       0       0       0       0       0       0       0       
      +0       0       0       0       0
   680 ;;      Locals:         0       0       0       0       0       0       0       0       0       0       0       0       
      +0       0       0       0       0
   681 ;;      Temps:          2       0       0       0       0       0       0       0       0       0       0       0       
      +0       0       0       0       0
   682 ;;      Totals:         2       0       0       0       0       0       0       0       0       0       0       0       
      +0       0       0       0       0
   683 ;;Total ram usage:        2 bytes
   684 ;; Hardware stack levels required when called: 8
   685 ;; This function calls:
   686 ;;		___awdiv
   687 ;;		___awmod
   688 ;;		_application_initialize
   689 ;;		_gpio_port_write_logic
   690 ;;		_keypad_get_value
   691 ;;		_lcd_4bit_send_char_data_pos
   692 ;;		_lcd_4bit_send_command
   693 ;;		_lcd_4bit_send_string_pos
   694 ;; This function is called by:
   695 ;;		Startup code after reset
   696 ;; This function uses a non-reentrant model
   697 ;;
   698                           
   699                           	psect	text0
   700   001056                     __ptext0:
   701                           	callstack 0
   702   001056                     _main:
   703                           	callstack 23
   704   001056                     
   705                           ;application.c: 94:        application_initialize();
   706   001056  EC4E  F011         	call	_application_initialize	;wreg free
   707   00105A  0E32               	movlw	low _lcd_1
   708   00105C  6E53               	movwf	lcd_4bit_send_string_pos@lcd^0,c
   709   00105E  0E01               	movlw	1
   710   001060  6E54               	movwf	lcd_4bit_send_string_pos@row^0,c
   711   001062  0E01               	movlw	1
   712   001064  6E55               	movwf	lcd_4bit_send_string_pos@column^0,c
   713   001066  0E11               	movlw	low STR_4
   714   001068  6E56               	movwf	lcd_4bit_send_string_pos@str^0,c
   715   00106A  ECC3  F010         	call	_lcd_4bit_send_string_pos	;wreg free
   716   00106E                     l3018:
   717   00106E  0E23               	movlw	low _key_pad
   718   001070  6E47               	movwf	keypad_get_value@_keypad_obj^0,c
   719   001072  0E6A               	movlw	low _keypad_Value
   720   001074  6E48               	movwf	keypad_get_value@value^0,c
   721   001076  EC5C  F00C         	call	_keypad_get_value	;wreg free
   722   00107A  0E01               	movlw	1
   723   00107C  6E47               	movwf	gpio_port_write_logic@logic^0,c
   724   00107E  0E01               	movlw	1
   725   001080  EC45  F010         	call	_gpio_port_write_logic
   726   001084  C064  F03F         	movff	_hour,___awdiv@dividend
   727   001088  6A40               	clrf	(___awdiv@dividend+1)^0,c
   728   00108A  0E00               	movlw	0
   729   00108C  6E42               	movwf	(___awdiv@divisor+1)^0,c
   730   00108E  0E0A               	movlw	10
   731   001090  6E41               	movwf	___awdiv@divisor^0,c
   732   001092  ECCB  F00C         	call	___awdiv	;wreg free
   733   001096  503F               	movf	?___awdiv^0,w,c
   734   001098  6E47               	movwf	gpio_port_write_logic@logic^0,c
   735   00109A  0E00               	movlw	0
   736   00109C  EC45  F010         	call	_gpio_port_write_logic
   737   0010A0                     
   738                           ;application.c: 101:         _delay((unsigned long)((5)*(8000000/4000.0)));
   739   0010A0  0E0D               	movlw	13
   740   0010A2  6E58               	movwf	??_main^0,c
   741   0010A4  0EFC               	movlw	252
   742   0010A6                     u2067:
   743   0010A6  2EE8               	decfsz	wreg,f,c
   744   0010A8  D7FE               	bra	u2067
   745   0010AA  2E58               	decfsz	??_main^0,f,c
   746   0010AC  D7FC               	bra	u2067
   747   0010AE  0E02               	movlw	2
   748   0010B0  6E47               	movwf	gpio_port_write_logic@logic^0,c
   749   0010B2  0E01               	movlw	1
   750   0010B4  EC45  F010         	call	_gpio_port_write_logic
   751   0010B8  C064  F03F         	movff	_hour,___awmod@dividend
   752   0010BC  6A40               	clrf	(___awmod@dividend+1)^0,c
   753   0010BE  0E00               	movlw	0
   754   0010C0  6E42               	movwf	(___awmod@divisor+1)^0,c
   755   0010C2  0E0A               	movlw	10
   756   0010C4  6E41               	movwf	___awmod@divisor^0,c
   757   0010C6  EC2D  F00D         	call	___awmod	;wreg free
   758   0010CA  503F               	movf	?___awmod^0,w,c
   759   0010CC  6E47               	movwf	gpio_port_write_logic@logic^0,c
   760   0010CE  0E00               	movlw	0
   761   0010D0  EC45  F010         	call	_gpio_port_write_logic
   762   0010D4                     
   763                           ;application.c: 105:         _delay((unsigned long)((5)*(8000000/4000.0)));
   764   0010D4  0E0D               	movlw	13
   765   0010D6  6E58               	movwf	??_main^0,c
   766   0010D8  0EFC               	movlw	252
   767   0010DA                     u2077:
   768   0010DA  2EE8               	decfsz	wreg,f,c
   769   0010DC  D7FE               	bra	u2077
   770   0010DE  2E58               	decfsz	??_main^0,f,c
   771   0010E0  D7FC               	bra	u2077
   772   0010E2  0E04               	movlw	4
   773   0010E4  6E47               	movwf	gpio_port_write_logic@logic^0,c
   774   0010E6  0E01               	movlw	1
   775   0010E8  EC45  F010         	call	_gpio_port_write_logic
   776   0010EC  C065  F03F         	movff	_min,___awdiv@dividend
   777   0010F0  6A40               	clrf	(___awdiv@dividend+1)^0,c
   778   0010F2  0E00               	movlw	0
   779   0010F4  6E42               	movwf	(___awdiv@divisor+1)^0,c
   780   0010F6  0E0A               	movlw	10
   781   0010F8  6E41               	movwf	___awdiv@divisor^0,c
   782   0010FA  ECCB  F00C         	call	___awdiv	;wreg free
   783   0010FE  503F               	movf	?___awdiv^0,w,c
   784   001100  6E47               	movwf	gpio_port_write_logic@logic^0,c
   785   001102  0E00               	movlw	0
   786   001104  EC45  F010         	call	_gpio_port_write_logic
   787   001108                     
   788                           ;application.c: 109:         _delay((unsigned long)((5)*(8000000/4000.0)));
   789   001108  0E0D               	movlw	13
   790   00110A  6E58               	movwf	??_main^0,c
   791   00110C  0EFC               	movlw	252
   792   00110E                     u2087:
   793   00110E  2EE8               	decfsz	wreg,f,c
   794   001110  D7FE               	bra	u2087
   795   001112  2E58               	decfsz	??_main^0,f,c
   796   001114  D7FC               	bra	u2087
   797   001116  0E08               	movlw	8
   798   001118  6E47               	movwf	gpio_port_write_logic@logic^0,c
   799   00111A  0E01               	movlw	1
   800   00111C  EC45  F010         	call	_gpio_port_write_logic
   801   001120  C065  F03F         	movff	_min,___awmod@dividend
   802   001124  6A40               	clrf	(___awmod@dividend+1)^0,c
   803   001126  0E00               	movlw	0
   804   001128  6E42               	movwf	(___awmod@divisor+1)^0,c
   805   00112A  0E0A               	movlw	10
   806   00112C  6E41               	movwf	___awmod@divisor^0,c
   807   00112E  EC2D  F00D         	call	___awmod	;wreg free
   808   001132  503F               	movf	?___awmod^0,w,c
   809   001134  6E47               	movwf	gpio_port_write_logic@logic^0,c
   810   001136  0E00               	movlw	0
   811   001138  EC45  F010         	call	_gpio_port_write_logic
   812   00113C                     
   813                           ;application.c: 113:         _delay((unsigned long)((5)*(8000000/4000.0)));
   814   00113C  0E0D               	movlw	13
   815   00113E  6E58               	movwf	??_main^0,c
   816   001140  0EFC               	movlw	252
   817   001142                     u2097:
   818   001142  2EE8               	decfsz	wreg,f,c
   819   001144  D7FE               	bra	u2097
   820   001146  2E58               	decfsz	??_main^0,f,c
   821   001148  D7FC               	bra	u2097
   822   00114A  0E10               	movlw	16
   823   00114C  6E47               	movwf	gpio_port_write_logic@logic^0,c
   824   00114E  0E01               	movlw	1
   825   001150  EC45  F010         	call	_gpio_port_write_logic
   826   001154  C066  F03F         	movff	_sec,___awdiv@dividend
   827   001158  6A40               	clrf	(___awdiv@dividend+1)^0,c
   828   00115A  0E00               	movlw	0
   829   00115C  6E42               	movwf	(___awdiv@divisor+1)^0,c
   830   00115E  0E0A               	movlw	10
   831   001160  6E41               	movwf	___awdiv@divisor^0,c
   832   001162  ECCB  F00C         	call	___awdiv	;wreg free
   833   001166  503F               	movf	?___awdiv^0,w,c
   834   001168  6E47               	movwf	gpio_port_write_logic@logic^0,c
   835   00116A  0E00               	movlw	0
   836   00116C  EC45  F010         	call	_gpio_port_write_logic
   837   001170                     
   838                           ;application.c: 117:         _delay((unsigned long)((5)*(8000000/4000.0)));
   839   001170  0E0D               	movlw	13
   840   001172  6E58               	movwf	??_main^0,c
   841   001174  0EFC               	movlw	252
   842   001176                     u2107:
   843   001176  2EE8               	decfsz	wreg,f,c
   844   001178  D7FE               	bra	u2107
   845   00117A  2E58               	decfsz	??_main^0,f,c
   846   00117C  D7FC               	bra	u2107
   847   00117E  0E20               	movlw	32
   848   001180  6E47               	movwf	gpio_port_write_logic@logic^0,c
   849   001182  0E01               	movlw	1
   850   001184  EC45  F010         	call	_gpio_port_write_logic
   851   001188  C066  F03F         	movff	_sec,___awmod@dividend
   852   00118C  6A40               	clrf	(___awmod@dividend+1)^0,c
   853   00118E  0E00               	movlw	0
   854   001190  6E42               	movwf	(___awmod@divisor+1)^0,c
   855   001192  0E0A               	movlw	10
   856   001194  6E41               	movwf	___awmod@divisor^0,c
   857   001196  EC2D  F00D         	call	___awmod	;wreg free
   858   00119A  503F               	movf	?___awmod^0,w,c
   859   00119C  6E47               	movwf	gpio_port_write_logic@logic^0,c
   860   00119E  0E00               	movlw	0
   861   0011A0  EC45  F010         	call	_gpio_port_write_logic
   862   0011A4                     
   863                           ;application.c: 121:         _delay((unsigned long)((5)*(8000000/4000.0)));
   864   0011A4  0E0D               	movlw	13
   865   0011A6  6E58               	movwf	??_main^0,c
   866   0011A8  0EFC               	movlw	252
   867   0011AA                     u2117:
   868   0011AA  2EE8               	decfsz	wreg,f,c
   869   0011AC  D7FE               	bra	u2117
   870   0011AE  2E58               	decfsz	??_main^0,f,c
   871   0011B0  D7FC               	bra	u2117
   872   0011B2                     
   873                           ;application.c: 123:         if(sec == 60){
   874   0011B2  0E3C               	movlw	60
   875   0011B4  1866               	xorwf	_sec^0,w,c
   876   0011B6  A4D8               	btfss	status,2,c
   877   0011B8  EFE0  F008         	goto	u1951
   878   0011BC  EFE2  F008         	goto	u1950
   879   0011C0                     u1951:
   880   0011C0  EFE5  F008         	goto	l3062
   881   0011C4                     u1950:
   882   0011C4                     
   883                           ;application.c: 124:             sec=0;
   884   0011C4  0E00               	movlw	0
   885   0011C6  6E66               	movwf	_sec^0,c
   886   0011C8                     
   887                           ;application.c: 125:             min++;
   888   0011C8  2A65               	incf	_min^0,f,c
   889   0011CA                     l3062:
   890                           
   891                           ;application.c: 128:         if(min == 60){
   892   0011CA  0E3C               	movlw	60
   893   0011CC  1865               	xorwf	_min^0,w,c
   894   0011CE  A4D8               	btfss	status,2,c
   895   0011D0  EFEC  F008         	goto	u1961
   896   0011D4  EFEE  F008         	goto	u1960
   897   0011D8                     u1961:
   898   0011D8  EFF1  F008         	goto	l3068
   899   0011DC                     u1960:
   900   0011DC                     
   901                           ;application.c: 129:             min=0;
   902   0011DC  0E00               	movlw	0
   903   0011DE  6E65               	movwf	_min^0,c
   904   0011E0                     
   905                           ;application.c: 130:             hour++;
   906   0011E0  2A64               	incf	_hour^0,f,c
   907   0011E2                     l3068:
   908                           
   909                           ;application.c: 133:         if(hour == 24){
   910   0011E2  0E18               	movlw	24
   911   0011E4  1864               	xorwf	_hour^0,w,c
   912   0011E6  A4D8               	btfss	status,2,c
   913   0011E8  EFF8  F008         	goto	u1971
   914   0011EC  EFFA  F008         	goto	u1970
   915   0011F0                     u1971:
   916   0011F0  EFFC  F008         	goto	l3072
   917   0011F4                     u1970:
   918   0011F4                     
   919                           ;application.c: 134:             hour=0;
   920   0011F4  0E00               	movlw	0
   921   0011F6  6E64               	movwf	_hour^0,c
   922   0011F8                     l3072:
   923                           
   924                           ;application.c: 137:         }while(keypad_Value == 0);
   925   0011F8  506A               	movf	_keypad_Value^0,w,c
   926   0011FA  B4D8               	btfsc	status,2,c
   927   0011FC  EF02  F009         	goto	u1981
   928   001200  EF04  F009         	goto	u1980
   929   001204                     u1981:
   930   001204  EF37  F008         	goto	l3018
   931   001208                     u1980:
   932   001208                     
   933                           ;application.c: 138:         if(keypad_Value == '1'){
   934   001208  0E31               	movlw	49
   935   00120A  186A               	xorwf	_keypad_Value^0,w,c
   936   00120C  A4D8               	btfss	status,2,c
   937   00120E  EF0B  F009         	goto	u1991
   938   001212  EF0D  F009         	goto	u1990
   939   001216                     u1991:
   940   001216  EF87  F00A         	goto	l3170
   941   00121A                     u1990:
   942   00121A                     
   943                           ;application.c: 139:             _delay((unsigned long)((250)*(8000000/4000.0)));
   944   00121A  0E03               	movlw	3
   945   00121C  6E59               	movwf	(??_main+1)^0,c
   946   00121E  0E8A               	movlw	138
   947   001220  6E58               	movwf	??_main^0,c
   948   001222  0E56               	movlw	86
   949   001224                     u2127:
   950   001224  2EE8               	decfsz	wreg,f,c
   951   001226  D7FE               	bra	u2127
   952   001228  2E58               	decfsz	??_main^0,f,c
   953   00122A  D7FC               	bra	u2127
   954   00122C  2E59               	decfsz	(??_main+1)^0,f,c
   955   00122E  D7FA               	bra	u2127
   956   001230  0E32               	movlw	low _lcd_1
   957   001232  6E53               	movwf	lcd_4bit_send_string_pos@lcd^0,c
   958   001234  0E02               	movlw	2
   959   001236  6E54               	movwf	lcd_4bit_send_string_pos@row^0,c
   960   001238  0E01               	movlw	1
   961   00123A  6E55               	movwf	lcd_4bit_send_string_pos@column^0,c
   962   00123C  0E49               	movlw	low STR_5
   963   00123E  6E56               	movwf	lcd_4bit_send_string_pos@str^0,c
   964   001240  ECC3  F010         	call	_lcd_4bit_send_string_pos	;wreg free
   965   001244                     l3080:
   966   001244  0E23               	movlw	low _key_pad
   967   001246  6E47               	movwf	keypad_get_value@_keypad_obj^0,c
   968   001248  0E69               	movlw	low _digit_one
   969   00124A  6E48               	movwf	keypad_get_value@value^0,c
   970   00124C  EC5C  F00C         	call	_keypad_get_value	;wreg free
   971   001250                     
   972                           ;application.c: 143:             }while(digit_one == 0);
   973   001250  5069               	movf	_digit_one^0,w,c
   974   001252  B4D8               	btfsc	status,2,c
   975   001254  EF2E  F009         	goto	u2001
   976   001258  EF30  F009         	goto	u2000
   977   00125C                     u2001:
   978   00125C  EF22  F009         	goto	l3080
   979   001260                     u2000:
   980   001260                     
   981                           ;application.c: 144:             _delay((unsigned long)((250)*(8000000/4000.0)));
   982   001260  0E03               	movlw	3
   983   001262  6E59               	movwf	(??_main+1)^0,c
   984   001264  0E8A               	movlw	138
   985   001266  6E58               	movwf	??_main^0,c
   986   001268  0E56               	movlw	86
   987   00126A                     u2137:
   988   00126A  2EE8               	decfsz	wreg,f,c
   989   00126C  D7FE               	bra	u2137
   990   00126E  2E58               	decfsz	??_main^0,f,c
   991   001270  D7FC               	bra	u2137
   992   001272  2E59               	decfsz	(??_main+1)^0,f,c
   993   001274  D7FA               	bra	u2137
   994   001276  0E32               	movlw	low _lcd_1
   995   001278  6E53               	movwf	lcd_4bit_send_char_data_pos@lcd^0,c
   996   00127A  0E02               	movlw	2
   997   00127C  6E54               	movwf	lcd_4bit_send_char_data_pos@row^0,c
   998   00127E  0E07               	movlw	7
   999   001280  6E55               	movwf	lcd_4bit_send_char_data_pos@column^0,c
  1000   001282  C069  F056         	movff	_digit_one,lcd_4bit_send_char_data_pos@data
  1001   001286  ECA5  F010         	call	_lcd_4bit_send_char_data_pos	;wreg free
  1002   00128A                     
  1003                           ;application.c: 146:             _delay((unsigned long)((250)*(8000000/4000.0)));
  1004   00128A  0E03               	movlw	3
  1005   00128C  6E59               	movwf	(??_main+1)^0,c
  1006   00128E  0E8A               	movlw	138
  1007   001290  6E58               	movwf	??_main^0,c
  1008   001292  0E56               	movlw	86
  1009   001294                     u2147:
  1010   001294  2EE8               	decfsz	wreg,f,c
  1011   001296  D7FE               	bra	u2147
  1012   001298  2E58               	decfsz	??_main^0,f,c
  1013   00129A  D7FC               	bra	u2147
  1014   00129C  2E59               	decfsz	(??_main+1)^0,f,c
  1015   00129E  D7FA               	bra	u2147
  1016   0012A0                     l3090:
  1017   0012A0  0E23               	movlw	low _key_pad
  1018   0012A2  6E47               	movwf	keypad_get_value@_keypad_obj^0,c
  1019   0012A4  0E68               	movlw	low _digit_two
  1020   0012A6  6E48               	movwf	keypad_get_value@value^0,c
  1021   0012A8  EC5C  F00C         	call	_keypad_get_value	;wreg free
  1022   0012AC                     
  1023                           ;application.c: 149:             }while(digit_two == 0);
  1024   0012AC  5068               	movf	_digit_two^0,w,c
  1025   0012AE  B4D8               	btfsc	status,2,c
  1026   0012B0  EF5C  F009         	goto	u2011
  1027   0012B4  EF5E  F009         	goto	u2010
  1028   0012B8                     u2011:
  1029   0012B8  EF50  F009         	goto	l3090
  1030   0012BC                     u2010:
  1031   0012BC                     
  1032                           ;application.c: 150:             _delay((unsigned long)((300)*(8000000/4000.0)));
  1033   0012BC  0E04               	movlw	4
  1034   0012BE  6E59               	movwf	(??_main+1)^0,c
  1035   0012C0  0E0C               	movlw	12
  1036   0012C2  6E58               	movwf	??_main^0,c
  1037   0012C4  0E34               	movlw	52
  1038   0012C6                     u2157:
  1039   0012C6  2EE8               	decfsz	wreg,f,c
  1040   0012C8  D7FE               	bra	u2157
  1041   0012CA  2E58               	decfsz	??_main^0,f,c
  1042   0012CC  D7FC               	bra	u2157
  1043   0012CE  2E59               	decfsz	(??_main+1)^0,f,c
  1044   0012D0  D7FA               	bra	u2157
  1045   0012D2  0E32               	movlw	low _lcd_1
  1046   0012D4  6E53               	movwf	lcd_4bit_send_char_data_pos@lcd^0,c
  1047   0012D6  0E02               	movlw	2
  1048   0012D8  6E54               	movwf	lcd_4bit_send_char_data_pos@row^0,c
  1049   0012DA  0E08               	movlw	8
  1050   0012DC  6E55               	movwf	lcd_4bit_send_char_data_pos@column^0,c
  1051   0012DE  C068  F056         	movff	_digit_two,lcd_4bit_send_char_data_pos@data
  1052   0012E2  ECA5  F010         	call	_lcd_4bit_send_char_data_pos	;wreg free
  1053   0012E6                     
  1054                           ;application.c: 152:             _delay((unsigned long)((300)*(8000000/4000.0)));
  1055   0012E6  0E04               	movlw	4
  1056   0012E8  6E59               	movwf	(??_main+1)^0,c
  1057   0012EA  0E0C               	movlw	12
  1058   0012EC  6E58               	movwf	??_main^0,c
  1059   0012EE  0E34               	movlw	52
  1060   0012F0                     u2167:
  1061   0012F0  2EE8               	decfsz	wreg,f,c
  1062   0012F2  D7FE               	bra	u2167
  1063   0012F4  2E58               	decfsz	??_main^0,f,c
  1064   0012F6  D7FC               	bra	u2167
  1065   0012F8  2E59               	decfsz	(??_main+1)^0,f,c
  1066   0012FA  D7FA               	bra	u2167
  1067   0012FC                     
  1068                           ;application.c: 153:             hour = (digit_one-48)*10+(digit_two-48);
  1069   0012FC  5069               	movf	_digit_one^0,w,c
  1070   0012FE  0D0A               	mullw	10
  1071   001300  50F3               	movf	243,w,c
  1072   001302  2468               	addwf	_digit_two^0,w,c
  1073   001304  0FF0               	addlw	240
  1074   001306  6E64               	movwf	_hour^0,c
  1075   001308                     
  1076                           ;application.c: 154:             digit_one = 0;
  1077   001308  0E00               	movlw	0
  1078   00130A  6E69               	movwf	_digit_one^0,c
  1079   00130C                     
  1080                           ;application.c: 155:             digit_two = 0;
  1081   00130C  0E00               	movlw	0
  1082   00130E  6E68               	movwf	_digit_two^0,c
  1083   001310  0E32               	movlw	low _lcd_1
  1084   001312  6E53               	movwf	lcd_4bit_send_string_pos@lcd^0,c
  1085   001314  0E03               	movlw	3
  1086   001316  6E54               	movwf	lcd_4bit_send_string_pos@row^0,c
  1087   001318  0E01               	movlw	1
  1088   00131A  6E55               	movwf	lcd_4bit_send_string_pos@column^0,c
  1089   00131C  0E3E               	movlw	low STR_6
  1090   00131E  6E56               	movwf	lcd_4bit_send_string_pos@str^0,c
  1091   001320  ECC3  F010         	call	_lcd_4bit_send_string_pos	;wreg free
  1092   001324                     l3108:
  1093   001324  0E23               	movlw	low _key_pad
  1094   001326  6E47               	movwf	keypad_get_value@_keypad_obj^0,c
  1095   001328  0E69               	movlw	low _digit_one
  1096   00132A  6E48               	movwf	keypad_get_value@value^0,c
  1097   00132C  EC5C  F00C         	call	_keypad_get_value	;wreg free
  1098   001330                     
  1099                           ;application.c: 159:             }while(digit_one == 0);
  1100   001330  5069               	movf	_digit_one^0,w,c
  1101   001332  B4D8               	btfsc	status,2,c
  1102   001334  EF9E  F009         	goto	u2021
  1103   001338  EFA0  F009         	goto	u2020
  1104   00133C                     u2021:
  1105   00133C  EF92  F009         	goto	l3108
  1106   001340                     u2020:
  1107   001340                     
  1108                           ;application.c: 160:             _delay((unsigned long)((250)*(8000000/4000.0)));
  1109   001340  0E03               	movlw	3
  1110   001342  6E59               	movwf	(??_main+1)^0,c
  1111   001344  0E8A               	movlw	138
  1112   001346  6E58               	movwf	??_main^0,c
  1113   001348  0E56               	movlw	86
  1114   00134A                     u2177:
  1115   00134A  2EE8               	decfsz	wreg,f,c
  1116   00134C  D7FE               	bra	u2177
  1117   00134E  2E58               	decfsz	??_main^0,f,c
  1118   001350  D7FC               	bra	u2177
  1119   001352  2E59               	decfsz	(??_main+1)^0,f,c
  1120   001354  D7FA               	bra	u2177
  1121   001356  0E32               	movlw	low _lcd_1
  1122   001358  6E53               	movwf	lcd_4bit_send_char_data_pos@lcd^0,c
  1123   00135A  0E03               	movlw	3
  1124   00135C  6E54               	movwf	lcd_4bit_send_char_data_pos@row^0,c
  1125   00135E  0E09               	movlw	9
  1126   001360  6E55               	movwf	lcd_4bit_send_char_data_pos@column^0,c
  1127   001362  C069  F056         	movff	_digit_one,lcd_4bit_send_char_data_pos@data
  1128   001366  ECA5  F010         	call	_lcd_4bit_send_char_data_pos	;wreg free
  1129   00136A                     
  1130                           ;application.c: 162:             _delay((unsigned long)((250)*(8000000/4000.0)));
  1131   00136A  0E03               	movlw	3
  1132   00136C  6E59               	movwf	(??_main+1)^0,c
  1133   00136E  0E8A               	movlw	138
  1134   001370  6E58               	movwf	??_main^0,c
  1135   001372  0E56               	movlw	86
  1136   001374                     u2187:
  1137   001374  2EE8               	decfsz	wreg,f,c
  1138   001376  D7FE               	bra	u2187
  1139   001378  2E58               	decfsz	??_main^0,f,c
  1140   00137A  D7FC               	bra	u2187
  1141   00137C  2E59               	decfsz	(??_main+1)^0,f,c
  1142   00137E  D7FA               	bra	u2187
  1143   001380                     l3118:
  1144   001380  0E23               	movlw	low _key_pad
  1145   001382  6E47               	movwf	keypad_get_value@_keypad_obj^0,c
  1146   001384  0E68               	movlw	low _digit_two
  1147   001386  6E48               	movwf	keypad_get_value@value^0,c
  1148   001388  EC5C  F00C         	call	_keypad_get_value	;wreg free
  1149   00138C                     
  1150                           ;application.c: 165:             }while(digit_two == 0);
  1151   00138C  5068               	movf	_digit_two^0,w,c
  1152   00138E  B4D8               	btfsc	status,2,c
  1153   001390  EFCC  F009         	goto	u2031
  1154   001394  EFCE  F009         	goto	u2030
  1155   001398                     u2031:
  1156   001398  EFC0  F009         	goto	l3118
  1157   00139C                     u2030:
  1158   00139C                     
  1159                           ;application.c: 166:             _delay((unsigned long)((300)*(8000000/4000.0)));
  1160   00139C  0E04               	movlw	4
  1161   00139E  6E59               	movwf	(??_main+1)^0,c
  1162   0013A0  0E0C               	movlw	12
  1163   0013A2  6E58               	movwf	??_main^0,c
  1164   0013A4  0E34               	movlw	52
  1165   0013A6                     u2197:
  1166   0013A6  2EE8               	decfsz	wreg,f,c
  1167   0013A8  D7FE               	bra	u2197
  1168   0013AA  2E58               	decfsz	??_main^0,f,c
  1169   0013AC  D7FC               	bra	u2197
  1170   0013AE  2E59               	decfsz	(??_main+1)^0,f,c
  1171   0013B0  D7FA               	bra	u2197
  1172   0013B2  0E32               	movlw	low _lcd_1
  1173   0013B4  6E53               	movwf	lcd_4bit_send_char_data_pos@lcd^0,c
  1174   0013B6  0E03               	movlw	3
  1175   0013B8  6E54               	movwf	lcd_4bit_send_char_data_pos@row^0,c
  1176   0013BA  0E0A               	movlw	10
  1177   0013BC  6E55               	movwf	lcd_4bit_send_char_data_pos@column^0,c
  1178   0013BE  C068  F056         	movff	_digit_two,lcd_4bit_send_char_data_pos@data
  1179   0013C2  ECA5  F010         	call	_lcd_4bit_send_char_data_pos	;wreg free
  1180   0013C6                     
  1181                           ;application.c: 168:             _delay((unsigned long)((300)*(8000000/4000.0)));
  1182   0013C6  0E04               	movlw	4
  1183   0013C8  6E59               	movwf	(??_main+1)^0,c
  1184   0013CA  0E0C               	movlw	12
  1185   0013CC  6E58               	movwf	??_main^0,c
  1186   0013CE  0E34               	movlw	52
  1187   0013D0                     u2207:
  1188   0013D0  2EE8               	decfsz	wreg,f,c
  1189   0013D2  D7FE               	bra	u2207
  1190   0013D4  2E58               	decfsz	??_main^0,f,c
  1191   0013D6  D7FC               	bra	u2207
  1192   0013D8  2E59               	decfsz	(??_main+1)^0,f,c
  1193   0013DA  D7FA               	bra	u2207
  1194   0013DC                     
  1195                           ;application.c: 169:             min = (digit_one-48)*10+(digit_two-48);
  1196   0013DC  5069               	movf	_digit_one^0,w,c
  1197   0013DE  0D0A               	mullw	10
  1198   0013E0  50F3               	movf	243,w,c
  1199   0013E2  2468               	addwf	_digit_two^0,w,c
  1200   0013E4  0FF0               	addlw	240
  1201   0013E6  6E65               	movwf	_min^0,c
  1202   0013E8                     
  1203                           ;application.c: 170:             digit_one = 0;
  1204   0013E8  0E00               	movlw	0
  1205   0013EA  6E69               	movwf	_digit_one^0,c
  1206   0013EC                     
  1207                           ;application.c: 171:             digit_two = 0;
  1208   0013EC  0E00               	movlw	0
  1209   0013EE  6E68               	movwf	_digit_two^0,c
  1210   0013F0  0E32               	movlw	low _lcd_1
  1211   0013F2  6E53               	movwf	lcd_4bit_send_string_pos@lcd^0,c
  1212   0013F4  0E04               	movlw	4
  1213   0013F6  6E54               	movwf	lcd_4bit_send_string_pos@row^0,c
  1214   0013F8  0E01               	movlw	1
  1215   0013FA  6E55               	movwf	lcd_4bit_send_string_pos@column^0,c
  1216   0013FC  0E33               	movlw	low STR_7
  1217   0013FE  6E56               	movwf	lcd_4bit_send_string_pos@str^0,c
  1218   001400  ECC3  F010         	call	_lcd_4bit_send_string_pos	;wreg free
  1219   001404                     l3136:
  1220   001404  0E23               	movlw	low _key_pad
  1221   001406  6E47               	movwf	keypad_get_value@_keypad_obj^0,c
  1222   001408  0E69               	movlw	low _digit_one
  1223   00140A  6E48               	movwf	keypad_get_value@value^0,c
  1224   00140C  EC5C  F00C         	call	_keypad_get_value	;wreg free
  1225   001410                     
  1226                           ;application.c: 175:             }while(digit_one == 0);
  1227   001410  5069               	movf	_digit_one^0,w,c
  1228   001412  B4D8               	btfsc	status,2,c
  1229   001414  EF0E  F00A         	goto	u2041
  1230   001418  EF10  F00A         	goto	u2040
  1231   00141C                     u2041:
  1232   00141C  EF02  F00A         	goto	l3136
  1233   001420                     u2040:
  1234   001420                     
  1235                           ;application.c: 176:             _delay((unsigned long)((250)*(8000000/4000.0)));
  1236   001420  0E03               	movlw	3
  1237   001422  6E59               	movwf	(??_main+1)^0,c
  1238   001424  0E8A               	movlw	138
  1239   001426  6E58               	movwf	??_main^0,c
  1240   001428  0E56               	movlw	86
  1241   00142A                     u2217:
  1242   00142A  2EE8               	decfsz	wreg,f,c
  1243   00142C  D7FE               	bra	u2217
  1244   00142E  2E58               	decfsz	??_main^0,f,c
  1245   001430  D7FC               	bra	u2217
  1246   001432  2E59               	decfsz	(??_main+1)^0,f,c
  1247   001434  D7FA               	bra	u2217
  1248   001436  0E32               	movlw	low _lcd_1
  1249   001438  6E53               	movwf	lcd_4bit_send_char_data_pos@lcd^0,c
  1250   00143A  0E04               	movlw	4
  1251   00143C  6E54               	movwf	lcd_4bit_send_char_data_pos@row^0,c
  1252   00143E  0E09               	movlw	9
  1253   001440  6E55               	movwf	lcd_4bit_send_char_data_pos@column^0,c
  1254   001442  C069  F056         	movff	_digit_one,lcd_4bit_send_char_data_pos@data
  1255   001446  ECA5  F010         	call	_lcd_4bit_send_char_data_pos	;wreg free
  1256   00144A                     
  1257                           ;application.c: 178:             _delay((unsigned long)((250)*(8000000/4000.0)));
  1258   00144A  0E03               	movlw	3
  1259   00144C  6E59               	movwf	(??_main+1)^0,c
  1260   00144E  0E8A               	movlw	138
  1261   001450  6E58               	movwf	??_main^0,c
  1262   001452  0E56               	movlw	86
  1263   001454                     u2227:
  1264   001454  2EE8               	decfsz	wreg,f,c
  1265   001456  D7FE               	bra	u2227
  1266   001458  2E58               	decfsz	??_main^0,f,c
  1267   00145A  D7FC               	bra	u2227
  1268   00145C  2E59               	decfsz	(??_main+1)^0,f,c
  1269   00145E  D7FA               	bra	u2227
  1270   001460                     l3146:
  1271   001460  0E23               	movlw	low _key_pad
  1272   001462  6E47               	movwf	keypad_get_value@_keypad_obj^0,c
  1273   001464  0E68               	movlw	low _digit_two
  1274   001466  6E48               	movwf	keypad_get_value@value^0,c
  1275   001468  EC5C  F00C         	call	_keypad_get_value	;wreg free
  1276   00146C                     
  1277                           ;application.c: 181:             }while(digit_two == 0);
  1278   00146C  5068               	movf	_digit_two^0,w,c
  1279   00146E  B4D8               	btfsc	status,2,c
  1280   001470  EF3C  F00A         	goto	u2051
  1281   001474  EF3E  F00A         	goto	u2050
  1282   001478                     u2051:
  1283   001478  EF30  F00A         	goto	l3146
  1284   00147C                     u2050:
  1285   00147C                     
  1286                           ;application.c: 182:             _delay((unsigned long)((300)*(8000000/4000.0)));
  1287   00147C  0E04               	movlw	4
  1288   00147E  6E59               	movwf	(??_main+1)^0,c
  1289   001480  0E0C               	movlw	12
  1290   001482  6E58               	movwf	??_main^0,c
  1291   001484  0E34               	movlw	52
  1292   001486                     u2237:
  1293   001486  2EE8               	decfsz	wreg,f,c
  1294   001488  D7FE               	bra	u2237
  1295   00148A  2E58               	decfsz	??_main^0,f,c
  1296   00148C  D7FC               	bra	u2237
  1297   00148E  2E59               	decfsz	(??_main+1)^0,f,c
  1298   001490  D7FA               	bra	u2237
  1299   001492  0E32               	movlw	low _lcd_1
  1300   001494  6E53               	movwf	lcd_4bit_send_char_data_pos@lcd^0,c
  1301   001496  0E04               	movlw	4
  1302   001498  6E54               	movwf	lcd_4bit_send_char_data_pos@row^0,c
  1303   00149A  0E0A               	movlw	10
  1304   00149C  6E55               	movwf	lcd_4bit_send_char_data_pos@column^0,c
  1305   00149E  C068  F056         	movff	_digit_two,lcd_4bit_send_char_data_pos@data
  1306   0014A2  ECA5  F010         	call	_lcd_4bit_send_char_data_pos	;wreg free
  1307   0014A6                     
  1308                           ;application.c: 184:             _delay((unsigned long)((300)*(8000000/4000.0)));
  1309   0014A6  0E04               	movlw	4
  1310   0014A8  6E59               	movwf	(??_main+1)^0,c
  1311   0014AA  0E0C               	movlw	12
  1312   0014AC  6E58               	movwf	??_main^0,c
  1313   0014AE  0E34               	movlw	52
  1314   0014B0                     u2247:
  1315   0014B0  2EE8               	decfsz	wreg,f,c
  1316   0014B2  D7FE               	bra	u2247
  1317   0014B4  2E58               	decfsz	??_main^0,f,c
  1318   0014B6  D7FC               	bra	u2247
  1319   0014B8  2E59               	decfsz	(??_main+1)^0,f,c
  1320   0014BA  D7FA               	bra	u2247
  1321   0014BC                     
  1322                           ;application.c: 185:             sec = (digit_one-48)*10+(digit_two-48);
  1323   0014BC  5069               	movf	_digit_one^0,w,c
  1324   0014BE  0D0A               	mullw	10
  1325   0014C0  50F3               	movf	243,w,c
  1326   0014C2  2468               	addwf	_digit_two^0,w,c
  1327   0014C4  0FF0               	addlw	240
  1328   0014C6  6E66               	movwf	_sec^0,c
  1329   0014C8                     
  1330                           ;application.c: 186:             digit_one = 0;
  1331   0014C8  0E00               	movlw	0
  1332   0014CA  6E69               	movwf	_digit_one^0,c
  1333   0014CC                     
  1334                           ;application.c: 187:             digit_two = 0;
  1335   0014CC  0E00               	movlw	0
  1336   0014CE  6E68               	movwf	_digit_two^0,c
  1337   0014D0                     
  1338                           ;application.c: 188:             keypad_Value = 0;
  1339   0014D0  0E00               	movlw	0
  1340   0014D2  6E6A               	movwf	_keypad_Value^0,c
  1341   0014D4                     
  1342                           ;application.c: 189:             lcd_4bit_send_command(&lcd_1,0x01);
  1343   0014D4  0E32               	movlw	low _lcd_1
  1344   0014D6  6E4A               	movwf	lcd_4bit_send_command@lcd^0,c
  1345   0014D8  0E01               	movlw	1
  1346   0014DA  6E4B               	movwf	lcd_4bit_send_command@command^0,c
  1347   0014DC  ECA4  F00F         	call	_lcd_4bit_send_command	;wreg free
  1348   0014E0                     
  1349                           ;application.c: 190:             _delay((unsigned long)((300)*(8000000/4000.0)));
  1350   0014E0  0E04               	movlw	4
  1351   0014E2  6E59               	movwf	(??_main+1)^0,c
  1352   0014E4  0E0C               	movlw	12
  1353   0014E6  6E58               	movwf	??_main^0,c
  1354   0014E8  0E34               	movlw	52
  1355   0014EA                     u2257:
  1356   0014EA  2EE8               	decfsz	wreg,f,c
  1357   0014EC  D7FE               	bra	u2257
  1358   0014EE  2E58               	decfsz	??_main^0,f,c
  1359   0014F0  D7FC               	bra	u2257
  1360   0014F2  2E59               	decfsz	(??_main+1)^0,f,c
  1361   0014F4  D7FA               	bra	u2257
  1362   0014F6  0E32               	movlw	low _lcd_1
  1363   0014F8  6E53               	movwf	lcd_4bit_send_string_pos@lcd^0,c
  1364   0014FA  0E01               	movlw	1
  1365   0014FC  6E54               	movwf	lcd_4bit_send_string_pos@row^0,c
  1366   0014FE  0E01               	movlw	1
  1367   001500  6E55               	movwf	lcd_4bit_send_string_pos@column^0,c
  1368   001502  0E11               	movlw	low STR_4
  1369   001504  6E56               	movwf	lcd_4bit_send_string_pos@str^0,c
  1370   001506  ECC3  F010         	call	_lcd_4bit_send_string_pos	;wreg free
  1371                           
  1372                           ;application.c: 192:         }
  1373   00150A  EF37  F008         	goto	l3018
  1374   00150E                     l3170:
  1375                           
  1376                           ;application.c: 194:             lcd_4bit_send_command(&lcd_1,0x01);
  1377   00150E  0E32               	movlw	low _lcd_1
  1378   001510  6E4A               	movwf	lcd_4bit_send_command@lcd^0,c
  1379   001512  0E01               	movlw	1
  1380   001514  6E4B               	movwf	lcd_4bit_send_command@command^0,c
  1381   001516  ECA4  F00F         	call	_lcd_4bit_send_command	;wreg free
  1382   00151A                     
  1383                           ;application.c: 195:             _delay((unsigned long)((300)*(8000000/4000.0)));
  1384   00151A  0E04               	movlw	4
  1385   00151C  6E59               	movwf	(??_main+1)^0,c
  1386   00151E  0E0C               	movlw	12
  1387   001520  6E58               	movwf	??_main^0,c
  1388   001522  0E34               	movlw	52
  1389   001524                     u2267:
  1390   001524  2EE8               	decfsz	wreg,f,c
  1391   001526  D7FE               	bra	u2267
  1392   001528  2E58               	decfsz	??_main^0,f,c
  1393   00152A  D7FC               	bra	u2267
  1394   00152C  2E59               	decfsz	(??_main+1)^0,f,c
  1395   00152E  D7FA               	bra	u2267
  1396   001530  0E32               	movlw	low _lcd_1
  1397   001532  6E53               	movwf	lcd_4bit_send_string_pos@lcd^0,c
  1398   001534  0E01               	movlw	1
  1399   001536  6E54               	movwf	lcd_4bit_send_string_pos@row^0,c
  1400   001538  0E01               	movlw	1
  1401   00153A  6E55               	movwf	lcd_4bit_send_string_pos@column^0,c
  1402   00153C  0E26               	movlw	low STR_9
  1403   00153E  6E56               	movwf	lcd_4bit_send_string_pos@str^0,c
  1404   001540  ECC3  F010         	call	_lcd_4bit_send_string_pos	;wreg free
  1405   001544                     
  1406                           ;application.c: 197:             _delay((unsigned long)((300)*(8000000/4000.0)));
  1407   001544  0E04               	movlw	4
  1408   001546  6E59               	movwf	(??_main+1)^0,c
  1409   001548  0E0C               	movlw	12
  1410   00154A  6E58               	movwf	??_main^0,c
  1411   00154C  0E34               	movlw	52
  1412   00154E                     u2277:
  1413   00154E  2EE8               	decfsz	wreg,f,c
  1414   001550  D7FE               	bra	u2277
  1415   001552  2E58               	decfsz	??_main^0,f,c
  1416   001554  D7FC               	bra	u2277
  1417   001556  2E59               	decfsz	(??_main+1)^0,f,c
  1418   001558  D7FA               	bra	u2277
  1419   00155A                     
  1420                           ;application.c: 198:             lcd_4bit_send_command(&lcd_1,0x01);
  1421   00155A  0E32               	movlw	low _lcd_1
  1422   00155C  6E4A               	movwf	lcd_4bit_send_command@lcd^0,c
  1423   00155E  0E01               	movlw	1
  1424   001560  6E4B               	movwf	lcd_4bit_send_command@command^0,c
  1425   001562  ECA4  F00F         	call	_lcd_4bit_send_command	;wreg free
  1426   001566                     
  1427                           ;application.c: 199:             _delay((unsigned long)((300)*(8000000/4000.0)));
  1428   001566  0E04               	movlw	4
  1429   001568  6E59               	movwf	(??_main+1)^0,c
  1430   00156A  0E0C               	movlw	12
  1431   00156C  6E58               	movwf	??_main^0,c
  1432   00156E  0E34               	movlw	52
  1433   001570                     u2287:
  1434   001570  2EE8               	decfsz	wreg,f,c
  1435   001572  D7FE               	bra	u2287
  1436   001574  2E58               	decfsz	??_main^0,f,c
  1437   001576  D7FC               	bra	u2287
  1438   001578  2E59               	decfsz	(??_main+1)^0,f,c
  1439   00157A  D7FA               	bra	u2287
  1440   00157C  0E32               	movlw	low _lcd_1
  1441   00157E  6E53               	movwf	lcd_4bit_send_string_pos@lcd^0,c
  1442   001580  0E01               	movlw	1
  1443   001582  6E54               	movwf	lcd_4bit_send_string_pos@row^0,c
  1444   001584  0E01               	movlw	1
  1445   001586  6E55               	movwf	lcd_4bit_send_string_pos@column^0,c
  1446   001588  0E11               	movlw	low STR_4
  1447   00158A  6E56               	movwf	lcd_4bit_send_string_pos@str^0,c
  1448   00158C  ECC3  F010         	call	_lcd_4bit_send_string_pos	;wreg free
  1449   001590                     
  1450                           ;application.c: 201:             keypad_Value = 0;
  1451   001590  0E00               	movlw	0
  1452   001592  6E6A               	movwf	_keypad_Value^0,c
  1453   001594  EF37  F008         	goto	l3018
  1454   001598  EF07  F000         	goto	start
  1455   00159C                     __end_of_main:
  1456                           	callstack 0
  1457                           
  1458 ;; *************** function _lcd_4bit_send_string_pos *****************
  1459 ;; Defined at:
  1460 ;;		line 99 in file "ECU_layer/LCD/ecu_lcd.c"
  1461 ;; Parameters:    Size  Location     Type
  1462 ;;  lcd             1   22[COMRAM] PTR const struct .
  1463 ;;		 -> lcd_1(6), 
  1464 ;;  row             1   23[COMRAM] unsigned char 
  1465 ;;  column          1   24[COMRAM] unsigned char 
  1466 ;;  str             1   25[COMRAM] PTR unsigned char 
  1467 ;;		 -> STR_10(21), STR_9(13), STR_8(21), STR_7(11), 
  1468 ;;		 -> STR_6(11), STR_5(9), STR_4(21), 
  1469 ;; Auto vars:     Size  Location     Type
  1470 ;;  ret             1   26[COMRAM] unsigned char 
  1471 ;; Return value:  Size  Location     Type
  1472 ;;                  1    wreg      unsigned char 
  1473 ;; Registers used:
  1474 ;;		wreg, fsr2l, fsr2h, status,2, status,0, tblptrl, tblptrh, tblptru, prodl, prodh, cstack
  1475 ;; Tracked objects:
  1476 ;;		On entry : 0/0
  1477 ;;		On exit  : 0/0
  1478 ;;		Unchanged: 0/0
  1479 ;; Data sizes:     COMRAM   BANK0   BANK1   BANK2   BANK3   BANK4   BANK5   BANK6   BANK7   BANK8   BANK9  BANK10  BANK1
      +1  BANK12  BANK13  BANK14  BANK15
  1480 ;;      Params:         4       0       0       0       0       0       0       0       0       0       0       0       
      +0       0       0       0       0
  1481 ;;      Locals:         1       0       0       0       0       0       0       0       0       0       0       0       
      +0       0       0       0       0
  1482 ;;      Temps:          0       0       0       0       0       0       0       0       0       0       0       0       
      +0       0       0       0       0
  1483 ;;      Totals:         5       0       0       0       0       0       0       0       0       0       0       0       
      +0       0       0       0       0
  1484 ;;Total ram usage:        5 bytes
  1485 ;; Hardware stack levels used: 1
  1486 ;; Hardware stack levels required when called: 7
  1487 ;; This function calls:
  1488 ;;		_lcd_4bit_send_string
  1489 ;;		_lcd_4bits_set_cursor
  1490 ;; This function is called by:
  1491 ;;		_main
  1492 ;; This function uses a non-reentrant model
  1493 ;;
  1494                           
  1495                           	psect	text1
  1496   002186                     __ptext1:
  1497                           	callstack 0
  1498   002186                     _lcd_4bit_send_string_pos:
  1499                           	callstack 23
  1500   002186                     
  1501                           ;ECU_layer/LCD/ecu_lcd.c: 101:        if(((void*)0)==lcd){
  1502   002186  5053               	movf	lcd_4bit_send_string_pos@lcd^0,w,c
  1503   002188  A4D8               	btfss	status,2,c
  1504   00218A  EFC9  F010         	goto	u1651
  1505   00218E  EFCB  F010         	goto	u1650
  1506   002192                     u1651:
  1507   002192  EFCF  F010         	goto	l2708
  1508   002196                     u1650:
  1509   002196                     
  1510                           ;ECU_layer/LCD/ecu_lcd.c: 102:            ret = (std_returntype)0x00 ;
  1511   002196  0E00               	movlw	0
  1512   002198  6E57               	movwf	lcd_4bit_send_string_pos@ret^0,c
  1513                           
  1514                           ;ECU_layer/LCD/ecu_lcd.c: 103:        }
  1515   00219A  EFDE  F010         	goto	l2712
  1516   00219E                     l2708:
  1517   00219E  C053  F04D         	movff	lcd_4bit_send_string_pos@lcd,lcd_4bits_set_cursor@lcd
  1518   0021A2  C054  F04E         	movff	lcd_4bit_send_string_pos@row,lcd_4bits_set_cursor@row
  1519   0021A6  C055  F04F         	movff	lcd_4bit_send_string_pos@column,lcd_4bits_set_cursor@column
  1520   0021AA  EC85  F00D         	call	_lcd_4bits_set_cursor	;wreg free
  1521   0021AE                     
  1522                           ;ECU_layer/LCD/ecu_lcd.c: 107:            ret = lcd_4bit_send_string(lcd , str);
  1523   0021AE  C053  F04D         	movff	lcd_4bit_send_string_pos@lcd,lcd_4bit_send_string@lcd
  1524   0021B2  C056  F04E         	movff	lcd_4bit_send_string_pos@str,lcd_4bit_send_string@str
  1525   0021B6  EC4B  F00F         	call	_lcd_4bit_send_string	;wreg free
  1526   0021BA  6E57               	movwf	lcd_4bit_send_string_pos@ret^0,c
  1527   0021BC                     l2712:
  1528                           
  1529                           ;ECU_layer/LCD/ecu_lcd.c: 109:      return ret;
  1530   0021BC  5057               	movf	lcd_4bit_send_string_pos@ret^0,w,c
  1531   0021BE  0012               	return		;funcret
  1532   0021C0                     __end_of_lcd_4bit_send_string_pos:
  1533                           	callstack 0
  1534                           
  1535 ;; *************** function _lcd_4bit_send_string *****************
  1536 ;; Defined at:
  1537 ;;		line 86 in file "ECU_layer/LCD/ecu_lcd.c"
  1538 ;; Parameters:    Size  Location     Type
  1539 ;;  lcd             1   16[COMRAM] PTR const struct .
  1540 ;;		 -> lcd_1(6), 
  1541 ;;  str             1   17[COMRAM] PTR unsigned char 
  1542 ;;		 -> STR_10(21), STR_9(13), STR_8(21), STR_7(11), 
  1543 ;;		 -> STR_6(11), STR_5(9), STR_4(21), 
  1544 ;; Auto vars:     Size  Location     Type
  1545 ;;  ret             1   18[COMRAM] unsigned char 
  1546 ;; Return value:  Size  Location     Type
  1547 ;;                  1    wreg      unsigned char 
  1548 ;; Registers used:
  1549 ;;		wreg, fsr2l, fsr2h, status,2, status,0, tblptrl, tblptrh, tblptru, prodl, prodh, cstack
  1550 ;; Tracked objects:
  1551 ;;		On entry : 0/0
  1552 ;;		On exit  : 0/0
  1553 ;;		Unchanged: 0/0
  1554 ;; Data sizes:     COMRAM   BANK0   BANK1   BANK2   BANK3   BANK4   BANK5   BANK6   BANK7   BANK8   BANK9  BANK10  BANK1
      +1  BANK12  BANK13  BANK14  BANK15
  1555 ;;      Params:         2       0       0       0       0       0       0       0       0       0       0       0       
      +0       0       0       0       0
  1556 ;;      Locals:         1       0       0       0       0       0       0       0       0       0       0       0       
      +0       0       0       0       0
  1557 ;;      Temps:          0       0       0       0       0       0       0       0       0       0       0       0       
      +0       0       0       0       0
  1558 ;;      Totals:         3       0       0       0       0       0       0       0       0       0       0       0       
      +0       0       0       0       0
  1559 ;;Total ram usage:        3 bytes
  1560 ;; Hardware stack levels used: 1
  1561 ;; Hardware stack levels required when called: 6
  1562 ;; This function calls:
  1563 ;;		_lcd_4bit_send_char_data
  1564 ;; This function is called by:
  1565 ;;		_lcd_4bit_send_string_pos
  1566 ;; This function uses a non-reentrant model
  1567 ;;
  1568                           
  1569                           	psect	text2
  1570   001E96                     __ptext2:
  1571                           	callstack 0
  1572   001E96                     _lcd_4bit_send_string:
  1573                           	callstack 23
  1574   001E96                     
  1575                           ;ECU_layer/LCD/ecu_lcd.c: 87:          std_returntype ret = (std_returntype)0x01;
  1576   001E96  0E01               	movlw	1
  1577   001E98  6E4F               	movwf	lcd_4bit_send_string@ret^0,c
  1578                           
  1579                           ;ECU_layer/LCD/ecu_lcd.c: 88:        if(((void*)0)==lcd){
  1580   001E9A  504D               	movf	lcd_4bit_send_string@lcd^0,w,c
  1581   001E9C  A4D8               	btfss	status,2,c
  1582   001E9E  EF53  F00F         	goto	u1501
  1583   001EA2  EF55  F00F         	goto	u1500
  1584   001EA6                     u1501:
  1585   001EA6  EF67  F00F         	goto	l2560
  1586   001EAA                     u1500:
  1587   001EAA                     
  1588                           ;ECU_layer/LCD/ecu_lcd.c: 89:            ret = (std_returntype)0x00 ;
  1589   001EAA  0E00               	movlw	0
  1590   001EAC  6E4F               	movwf	lcd_4bit_send_string@ret^0,c
  1591                           
  1592                           ;ECU_layer/LCD/ecu_lcd.c: 90:        }
  1593   001EAE  EF76  F00F         	goto	l2562
  1594   001EB2                     l2556:
  1595                           
  1596                           ;ECU_layer/LCD/ecu_lcd.c: 94:                ret = lcd_4bit_send_char_data(lcd , *str++)
      +                          ;
  1597   001EB2  C04D  F04A         	movff	lcd_4bit_send_string@lcd,lcd_4bit_send_char_data@lcd
  1598   001EB6  C04E  FFF6         	movff	lcd_4bit_send_string@str,tblptrl
  1599   001EBA                     	if	1	;There is more than 1 active tblptr byte
  1600   001EBA  0E10               	movlw	high __smallconst
  1601   001EBC  6EF7               	movwf	tblptrh,c
  1602   001EBE                     	endif
  1603   001EBE                     	if	1	;Program memory is < 0x10000, tblptru is always zero
  1604   001EBE  6AF8               	clrf	tblptru,c
  1605   001EC0                     	endif
  1606   001EC0                     	if	0	;tblptru may be non-zero
  1607   001EC0                     	endif
  1608   001EC0  0008               	tblrd		*
  1609   001EC2  CFF5 F04B          	movff	tablat,lcd_4bit_send_char_data@data
  1610   001EC6  EC78  F00F         	call	_lcd_4bit_send_char_data	;wreg free
  1611   001ECA  6E4F               	movwf	lcd_4bit_send_string@ret^0,c
  1612   001ECC  2A4E               	incf	lcd_4bit_send_string@str^0,f,c
  1613   001ECE                     l2560:
  1614                           
  1615                           ;ECU_layer/LCD/ecu_lcd.c: 93:            while(*str){
  1616   001ECE  C04E  FFF6         	movff	lcd_4bit_send_string@str,tblptrl
  1617   001ED2                     	if	1	;There is more than 1 active tblptr byte
  1618   001ED2  0E10               	movlw	high __smallconst
  1619   001ED4  6EF7               	movwf	tblptrh,c
  1620   001ED6                     	endif
  1621   001ED6                     	if	1	;Program memory is < 0x10000, tblptru is always zero
  1622   001ED6  6AF8               	clrf	tblptru,c
  1623   001ED8                     	endif
  1624   001ED8                     	if	0	;tblptru may be non-zero
  1625   001ED8                     	endif
  1626   001ED8  0008               	tblrd		*
  1627   001EDA  50F5               	movf	tablat,w,c
  1628   001EDC  0900               	iorlw	0
  1629   001EDE  A4D8               	btfss	status,2,c
  1630   001EE0  EF74  F00F         	goto	u1511
  1631   001EE4  EF76  F00F         	goto	u1510
  1632   001EE8                     u1511:
  1633   001EE8  EF59  F00F         	goto	l2556
  1634   001EEC                     u1510:
  1635   001EEC                     l2562:
  1636                           
  1637                           ;ECU_layer/LCD/ecu_lcd.c: 97:      return ret;
  1638   001EEC  504F               	movf	lcd_4bit_send_string@ret^0,w,c
  1639   001EEE  0012               	return		;funcret
  1640   001EF0                     __end_of_lcd_4bit_send_string:
  1641                           	callstack 0
  1642                           
  1643 ;; *************** function _lcd_4bit_send_char_data_pos *****************
  1644 ;; Defined at:
  1645 ;;		line 74 in file "ECU_layer/LCD/ecu_lcd.c"
  1646 ;; Parameters:    Size  Location     Type
  1647 ;;  lcd             1   22[COMRAM] PTR const struct .
  1648 ;;		 -> lcd_1(6), 
  1649 ;;  row             1   23[COMRAM] unsigned char 
  1650 ;;  column          1   24[COMRAM] unsigned char 
  1651 ;;  data            1   25[COMRAM] unsigned char 
  1652 ;; Auto vars:     Size  Location     Type
  1653 ;;  ret             1   26[COMRAM] unsigned char 
  1654 ;; Return value:  Size  Location     Type
  1655 ;;                  1    wreg      unsigned char 
  1656 ;; Registers used:
  1657 ;;		wreg, fsr2l, fsr2h, status,2, status,0, prodl, prodh, cstack
  1658 ;; Tracked objects:
  1659 ;;		On entry : 0/0
  1660 ;;		On exit  : 0/0
  1661 ;;		Unchanged: 0/0
  1662 ;; Data sizes:     COMRAM   BANK0   BANK1   BANK2   BANK3   BANK4   BANK5   BANK6   BANK7   BANK8   BANK9  BANK10  BANK1
      +1  BANK12  BANK13  BANK14  BANK15
  1663 ;;      Params:         4       0       0       0       0       0       0       0       0       0       0       0       
      +0       0       0       0       0
  1664 ;;      Locals:         1       0       0       0       0       0       0       0       0       0       0       0       
      +0       0       0       0       0
  1665 ;;      Temps:          0       0       0       0       0       0       0       0       0       0       0       0       
      +0       0       0       0       0
  1666 ;;      Totals:         5       0       0       0       0       0       0       0       0       0       0       0       
      +0       0       0       0       0
  1667 ;;Total ram usage:        5 bytes
  1668 ;; Hardware stack levels used: 1
  1669 ;; Hardware stack levels required when called: 7
  1670 ;; This function calls:
  1671 ;;		_lcd_4bit_send_char_data
  1672 ;;		_lcd_4bits_set_cursor
  1673 ;; This function is called by:
  1674 ;;		_main
  1675 ;;		_lcd_4bit_send_custome_char
  1676 ;; This function uses a non-reentrant model
  1677 ;;
  1678                           
  1679                           	psect	text3
  1680   00214A                     __ptext3:
  1681                           	callstack 0
  1682   00214A                     _lcd_4bit_send_char_data_pos:
  1683                           	callstack 23
  1684   00214A                     
  1685                           ;ECU_layer/LCD/ecu_lcd.c: 76:        if(((void*)0)==lcd){
  1686   00214A  5053               	movf	lcd_4bit_send_char_data_pos@lcd^0,w,c
  1687   00214C  A4D8               	btfss	status,2,c
  1688   00214E  EFAB  F010         	goto	u1641
  1689   002152  EFAD  F010         	goto	u1640
  1690   002156                     u1641:
  1691   002156  EFB1  F010         	goto	l2698
  1692   00215A                     u1640:
  1693   00215A                     
  1694                           ;ECU_layer/LCD/ecu_lcd.c: 77:            ret = (std_returntype)0x00 ;
  1695   00215A  0E00               	movlw	0
  1696   00215C  6E57               	movwf	lcd_4bit_send_char_data_pos@ret^0,c
  1697                           
  1698                           ;ECU_layer/LCD/ecu_lcd.c: 78:        }
  1699   00215E  EFC1  F010         	goto	l2700
  1700   002162                     l2698:
  1701                           
  1702                           ;ECU_layer/LCD/ecu_lcd.c: 80:         {;ECU_layer/LCD/ecu_lcd.c: 81:            ret = lc
      +                          d_4bits_set_cursor(lcd, row, column);
  1703   002162  C053  F04D         	movff	lcd_4bit_send_char_data_pos@lcd,lcd_4bits_set_cursor@lcd
  1704   002166  C054  F04E         	movff	lcd_4bit_send_char_data_pos@row,lcd_4bits_set_cursor@row
  1705   00216A  C055  F04F         	movff	lcd_4bit_send_char_data_pos@column,lcd_4bits_set_cursor@column
  1706   00216E  EC85  F00D         	call	_lcd_4bits_set_cursor	;wreg free
  1707   002172  6E57               	movwf	lcd_4bit_send_char_data_pos@ret^0,c
  1708                           
  1709                           ;ECU_layer/LCD/ecu_lcd.c: 82:            ret = lcd_4bit_send_char_data(lcd, data);
  1710   002174  C053  F04A         	movff	lcd_4bit_send_char_data_pos@lcd,lcd_4bit_send_char_data@lcd
  1711   002178  C056  F04B         	movff	lcd_4bit_send_char_data_pos@data,lcd_4bit_send_char_data@data
  1712   00217C  EC78  F00F         	call	_lcd_4bit_send_char_data	;wreg free
  1713   002180  6E57               	movwf	lcd_4bit_send_char_data_pos@ret^0,c
  1714   002182                     l2700:
  1715                           
  1716                           ;ECU_layer/LCD/ecu_lcd.c: 84:      return ret;
  1717   002182  5057               	movf	lcd_4bit_send_char_data_pos@ret^0,w,c
  1718   002184  0012               	return		;funcret
  1719   002186                     __end_of_lcd_4bit_send_char_data_pos:
  1720                           	callstack 0
  1721                           
  1722 ;; *************** function _lcd_4bits_set_cursor *****************
  1723 ;; Defined at:
  1724 ;;		line 331 in file "ECU_layer/LCD/ecu_lcd.c"
  1725 ;; Parameters:    Size  Location     Type
  1726 ;;  lcd             1   16[COMRAM] PTR const struct .
  1727 ;;		 -> lcd_1(6), 
  1728 ;;  row             1   17[COMRAM] unsigned char 
  1729 ;;  column          1   18[COMRAM] unsigned char 
  1730 ;; Auto vars:     Size  Location     Type
  1731 ;;  ret             1   21[COMRAM] unsigned char 
  1732 ;; Return value:  Size  Location     Type
  1733 ;;                  1    wreg      unsigned char 
  1734 ;; Registers used:
  1735 ;;		wreg, fsr2l, fsr2h, status,2, status,0, prodl, prodh, cstack
  1736 ;; Tracked objects:
  1737 ;;		On entry : 0/0
  1738 ;;		On exit  : 0/0
  1739 ;;		Unchanged: 0/0
  1740 ;; Data sizes:     COMRAM   BANK0   BANK1   BANK2   BANK3   BANK4   BANK5   BANK6   BANK7   BANK8   BANK9  BANK10  BANK1
      +1  BANK12  BANK13  BANK14  BANK15
  1741 ;;      Params:         3       0       0       0       0       0       0       0       0       0       0       0       
      +0       0       0       0       0
  1742 ;;      Locals:         1       0       0       0       0       0       0       0       0       0       0       0       
      +0       0       0       0       0
  1743 ;;      Temps:          2       0       0       0       0       0       0       0       0       0       0       0       
      +0       0       0       0       0
  1744 ;;      Totals:         6       0       0       0       0       0       0       0       0       0       0       0       
      +0       0       0       0       0
  1745 ;;Total ram usage:        6 bytes
  1746 ;; Hardware stack levels used: 1
  1747 ;; Hardware stack levels required when called: 6
  1748 ;; This function calls:
  1749 ;;		_lcd_4bit_send_command
  1750 ;; This function is called by:
  1751 ;;		_lcd_4bit_send_char_data_pos
  1752 ;;		_lcd_4bit_send_string_pos
  1753 ;; This function uses a non-reentrant model
  1754 ;;
  1755                           
  1756                           	psect	text4
  1757   001B0A                     __ptext4:
  1758                           	callstack 0
  1759   001B0A                     _lcd_4bits_set_cursor:
  1760                           	callstack 23
  1761   001B0A                     
  1762                           ;ECU_layer/LCD/ecu_lcd.c: 332:     std_returntype ret = (std_returntype)0x01;
  1763   001B0A  0E01               	movlw	1
  1764   001B0C  6E52               	movwf	lcd_4bits_set_cursor@ret^0,c
  1765   001B0E                     
  1766                           ;ECU_layer/LCD/ecu_lcd.c: 333:     column--;
  1767   001B0E  064F               	decf	lcd_4bits_set_cursor@column^0,f,c
  1768                           
  1769                           ;ECU_layer/LCD/ecu_lcd.c: 334:     switch(row){
  1770   001B10  EFBA  F00D         	goto	l2542
  1771   001B14                     l2534:
  1772   001B14  C04D  F04A         	movff	lcd_4bits_set_cursor@lcd,lcd_4bit_send_command@lcd
  1773   001B18  504F               	movf	lcd_4bits_set_cursor@column^0,w,c
  1774   001B1A  0F80               	addlw	128
  1775   001B1C  6E4B               	movwf	lcd_4bit_send_command@command^0,c
  1776   001B1E  ECA4  F00F         	call	_lcd_4bit_send_command	;wreg free
  1777   001B22  6E52               	movwf	lcd_4bits_set_cursor@ret^0,c
  1778   001B24  C052  F052         	movff	lcd_4bits_set_cursor@ret,lcd_4bits_set_cursor@ret
  1779   001B28  EFD7  F00D         	goto	l2544
  1780   001B2C                     l2536:
  1781   001B2C  C04D  F04A         	movff	lcd_4bits_set_cursor@lcd,lcd_4bit_send_command@lcd
  1782   001B30  504F               	movf	lcd_4bits_set_cursor@column^0,w,c
  1783   001B32  0FC0               	addlw	192
  1784   001B34  6E4B               	movwf	lcd_4bit_send_command@command^0,c
  1785   001B36  ECA4  F00F         	call	_lcd_4bit_send_command	;wreg free
  1786   001B3A  6E52               	movwf	lcd_4bits_set_cursor@ret^0,c
  1787   001B3C  C052  F052         	movff	lcd_4bits_set_cursor@ret,lcd_4bits_set_cursor@ret
  1788   001B40  EFD7  F00D         	goto	l2544
  1789   001B44                     l2538:
  1790   001B44  C04D  F04A         	movff	lcd_4bits_set_cursor@lcd,lcd_4bit_send_command@lcd
  1791   001B48  504F               	movf	lcd_4bits_set_cursor@column^0,w,c
  1792   001B4A  0F94               	addlw	148
  1793   001B4C  6E4B               	movwf	lcd_4bit_send_command@command^0,c
  1794   001B4E  ECA4  F00F         	call	_lcd_4bit_send_command	;wreg free
  1795   001B52  6E52               	movwf	lcd_4bits_set_cursor@ret^0,c
  1796   001B54  C052  F052         	movff	lcd_4bits_set_cursor@ret,lcd_4bits_set_cursor@ret
  1797   001B58  EFD7  F00D         	goto	l2544
  1798   001B5C                     l2540:
  1799   001B5C  C04D  F04A         	movff	lcd_4bits_set_cursor@lcd,lcd_4bit_send_command@lcd
  1800   001B60  504F               	movf	lcd_4bits_set_cursor@column^0,w,c
  1801   001B62  0FD4               	addlw	212
  1802   001B64  6E4B               	movwf	lcd_4bit_send_command@command^0,c
  1803   001B66  ECA4  F00F         	call	_lcd_4bit_send_command	;wreg free
  1804   001B6A  6E52               	movwf	lcd_4bits_set_cursor@ret^0,c
  1805   001B6C  C052  F052         	movff	lcd_4bits_set_cursor@ret,lcd_4bits_set_cursor@ret
  1806   001B70  EFD7  F00D         	goto	l2544
  1807   001B74                     l2542:
  1808   001B74  504E               	movf	lcd_4bits_set_cursor@row^0,w,c
  1809   001B76  6E50               	movwf	??_lcd_4bits_set_cursor^0,c
  1810   001B78  6A51               	clrf	(??_lcd_4bits_set_cursor+1)^0,c
  1811                           
  1812                           ; Switch on 2 bytes has been partitioned into a top level switch of size 1, and 1 sub-sw
      +                          itches
  1813                           ; Switch size 1, requested type "simple"
  1814                           ; Number of cases is 1, Range of values is 0 to 0
  1815                           ; switch strategies available:
  1816                           ; Name         Instructions Cycles
  1817                           ; simple_byte            4     3 (average)
  1818                           ;	Chosen strategy is simple_byte
  1819   001B7A  5051               	movf	(??_lcd_4bits_set_cursor+1)^0,w,c
  1820   001B7C  0A00               	xorlw	0	; case 0
  1821   001B7E  B4D8               	btfsc	status,2,c
  1822   001B80  EFC4  F00D         	goto	l3198
  1823   001B84  EFD7  F00D         	goto	l2544
  1824   001B88                     l3198:
  1825                           
  1826                           ; Switch size 1, requested type "simple"
  1827                           ; Number of cases is 4, Range of values is 1 to 4
  1828                           ; switch strategies available:
  1829                           ; Name         Instructions Cycles
  1830                           ; simple_byte           13     7 (average)
  1831                           ;	Chosen strategy is simple_byte
  1832   001B88  5050               	movf	??_lcd_4bits_set_cursor^0,w,c
  1833   001B8A  0A01               	xorlw	1	; case 1
  1834   001B8C  B4D8               	btfsc	status,2,c
  1835   001B8E  EF8A  F00D         	goto	l2534
  1836   001B92  0A03               	xorlw	3	; case 2
  1837   001B94  B4D8               	btfsc	status,2,c
  1838   001B96  EF96  F00D         	goto	l2536
  1839   001B9A  0A01               	xorlw	1	; case 3
  1840   001B9C  B4D8               	btfsc	status,2,c
  1841   001B9E  EFA2  F00D         	goto	l2538
  1842   001BA2  0A07               	xorlw	7	; case 4
  1843   001BA4  B4D8               	btfsc	status,2,c
  1844   001BA6  EFAE  F00D         	goto	l2540
  1845   001BAA  EFD7  F00D         	goto	l2544
  1846   001BAE                     l2544:
  1847                           
  1848                           ;ECU_layer/LCD/ecu_lcd.c: 341:     return ret;
  1849   001BAE  5052               	movf	lcd_4bits_set_cursor@ret^0,w,c
  1850   001BB0  0012               	return		;funcret
  1851   001BB2                     __end_of_lcd_4bits_set_cursor:
  1852                           	callstack 0
  1853                           
  1854 ;; *************** function _lcd_4bit_send_char_data *****************
  1855 ;; Defined at:
  1856 ;;		line 59 in file "ECU_layer/LCD/ecu_lcd.c"
  1857 ;; Parameters:    Size  Location     Type
  1858 ;;  lcd             1   13[COMRAM] PTR const struct .
  1859 ;;		 -> lcd_1(6), 
  1860 ;;  data            1   14[COMRAM] unsigned char 
  1861 ;; Auto vars:     Size  Location     Type
  1862 ;;  ret             1   15[COMRAM] unsigned char 
  1863 ;; Return value:  Size  Location     Type
  1864 ;;                  1    wreg      unsigned char 
  1865 ;; Registers used:
  1866 ;;		wreg, fsr2l, fsr2h, status,2, status,0, prodl, prodh, cstack
  1867 ;; Tracked objects:
  1868 ;;		On entry : 0/0
  1869 ;;		On exit  : 0/0
  1870 ;;		Unchanged: 0/0
  1871 ;; Data sizes:     COMRAM   BANK0   BANK1   BANK2   BANK3   BANK4   BANK5   BANK6   BANK7   BANK8   BANK9  BANK10  BANK1
      +1  BANK12  BANK13  BANK14  BANK15
  1872 ;;      Params:         2       0       0       0       0       0       0       0       0       0       0       0       
      +0       0       0       0       0
  1873 ;;      Locals:         1       0       0       0       0       0       0       0       0       0       0       0       
      +0       0       0       0       0
  1874 ;;      Temps:          0       0       0       0       0       0       0       0       0       0       0       0       
      +0       0       0       0       0
  1875 ;;      Totals:         3       0       0       0       0       0       0       0       0       0       0       0       
      +0       0       0       0       0
  1876 ;;Total ram usage:        3 bytes
  1877 ;; Hardware stack levels used: 1
  1878 ;; Hardware stack levels required when called: 5
  1879 ;; This function calls:
  1880 ;;		_gpio_pin_write_logic
  1881 ;;		_lcd_4bits_sned_enable_signal
  1882 ;;		_lcd_send_4bits
  1883 ;; This function is called by:
  1884 ;;		_lcd_4bit_send_char_data_pos
  1885 ;;		_lcd_4bit_send_string
  1886 ;;		_lcd_4bit_send_custome_char
  1887 ;; This function uses a non-reentrant model
  1888 ;;
  1889                           
  1890                           	psect	text5
  1891   001EF0                     __ptext5:
  1892                           	callstack 0
  1893   001EF0                     _lcd_4bit_send_char_data:
  1894                           	callstack 23
  1895   001EF0                     
  1896                           ;ECU_layer/LCD/ecu_lcd.c: 61:        if(((void*)0)==lcd){
  1897   001EF0  504A               	movf	lcd_4bit_send_char_data@lcd^0,w,c
  1898   001EF2  A4D8               	btfss	status,2,c
  1899   001EF4  EF7E  F00F         	goto	u1321
  1900   001EF8  EF80  F00F         	goto	u1320
  1901   001EFC                     u1321:
  1902   001EFC  EF84  F00F         	goto	l2400
  1903   001F00                     u1320:
  1904   001F00                     
  1905                           ;ECU_layer/LCD/ecu_lcd.c: 62:            ret = (std_returntype)0x00 ;
  1906   001F00  0E00               	movlw	0
  1907   001F02  6E4C               	movwf	lcd_4bit_send_char_data@ret^0,c
  1908                           
  1909                           ;ECU_layer/LCD/ecu_lcd.c: 63:        }
  1910   001F04  EFA2  F00F         	goto	l2402
  1911   001F08                     l2400:
  1912                           
  1913                           ;ECU_layer/LCD/ecu_lcd.c: 65:         {;ECU_layer/LCD/ecu_lcd.c: 66:            ret = gp
      +                          io_pin_write_logic(&(lcd->lcd_rs),HIGH);
  1914   001F08  C04A  F03F         	movff	lcd_4bit_send_char_data@lcd,gpio_pin_write_logic@_pin_config
  1915   001F0C  0E01               	movlw	1
  1916   001F0E  6E40               	movwf	gpio_pin_write_logic@logic^0,c
  1917   001F10  EC61  F00B         	call	_gpio_pin_write_logic	;wreg free
  1918   001F14  6E4C               	movwf	lcd_4bit_send_char_data@ret^0,c
  1919                           
  1920                           ;ECU_layer/LCD/ecu_lcd.c: 67:            ret = lcd_send_4bits(lcd , data >> 4 );
  1921   001F16  C04A  F047         	movff	lcd_4bit_send_char_data@lcd,lcd_send_4bits@lcd
  1922   001F1A  384B               	swapf	lcd_4bit_send_char_data@data^0,w,c
  1923   001F1C  0B0F               	andlw	15
  1924   001F1E  6E48               	movwf	lcd_send_4bits@_data_command^0,c
  1925   001F20  ECF9  F00F         	call	_lcd_send_4bits	;wreg free
  1926   001F24  6E4C               	movwf	lcd_4bit_send_char_data@ret^0,c
  1927                           
  1928                           ;ECU_layer/LCD/ecu_lcd.c: 68:            lcd_4bits_sned_enable_signal(lcd);
  1929   001F26  C04A  F047         	movff	lcd_4bit_send_char_data@lcd,lcd_4bits_sned_enable_signal@lcd
  1930   001F2A  EC77  F011         	call	_lcd_4bits_sned_enable_signal	;wreg free
  1931                           
  1932                           ;ECU_layer/LCD/ecu_lcd.c: 69:            ret = lcd_send_4bits(lcd , data);
  1933   001F2E  C04A  F047         	movff	lcd_4bit_send_char_data@lcd,lcd_send_4bits@lcd
  1934   001F32  C04B  F048         	movff	lcd_4bit_send_char_data@data,lcd_send_4bits@_data_command
  1935   001F36  ECF9  F00F         	call	_lcd_send_4bits	;wreg free
  1936   001F3A  6E4C               	movwf	lcd_4bit_send_char_data@ret^0,c
  1937                           
  1938                           ;ECU_layer/LCD/ecu_lcd.c: 70:            lcd_4bits_sned_enable_signal(lcd);
  1939   001F3C  C04A  F047         	movff	lcd_4bit_send_char_data@lcd,lcd_4bits_sned_enable_signal@lcd
  1940   001F40  EC77  F011         	call	_lcd_4bits_sned_enable_signal	;wreg free
  1941   001F44                     l2402:
  1942                           
  1943                           ;ECU_layer/LCD/ecu_lcd.c: 72:      return ret;
  1944   001F44  504C               	movf	lcd_4bit_send_char_data@ret^0,w,c
  1945   001F46  0012               	return		;funcret
  1946   001F48                     __end_of_lcd_4bit_send_char_data:
  1947                           	callstack 0
  1948                           
  1949 ;; *************** function _keypad_get_value *****************
  1950 ;; Defined at:
  1951 ;;		line 38 in file "ECU_layer/keypad/ecu_key_pad.c"
  1952 ;; Parameters:    Size  Location     Type
  1953 ;;  _keypad_obj     1   10[COMRAM] PTR const struct .
  1954 ;;		 -> key_pad(8), 
  1955 ;;  value           1   11[COMRAM] PTR unsigned char 
  1956 ;;		 -> digit_two(1), digit_one(1), keypad_Value(1), 
  1957 ;; Auto vars:     Size  Location     Type
  1958 ;;  l_columns_co    1   17[COMRAM] unsigned char 
  1959 ;;  l_rows_count    1   16[COMRAM] unsigned char 
  1960 ;;  l_counter       1   15[COMRAM] unsigned char 
  1961 ;;  column_logic    1   14[COMRAM] unsigned char 
  1962 ;;  ret             1   13[COMRAM] unsigned char 
  1963 ;; Return value:  Size  Location     Type
  1964 ;;                  1    wreg      unsigned char 
  1965 ;; Registers used:
  1966 ;;		wreg, fsr1l, fsr1h, fsr2l, fsr2h, status,2, status,0, tblptrl, tblptrh, tblptru, prodl, prodh, cstack
  1967 ;; Tracked objects:
  1968 ;;		On entry : 0/0
  1969 ;;		On exit  : 0/0
  1970 ;;		Unchanged: 0/0
  1971 ;; Data sizes:     COMRAM   BANK0   BANK1   BANK2   BANK3   BANK4   BANK5   BANK6   BANK7   BANK8   BANK9  BANK10  BANK1
      +1  BANK12  BANK13  BANK14  BANK15
  1972 ;;      Params:         2       0       0       0       0       0       0       0       0       0       0       0       
      +0       0       0       0       0
  1973 ;;      Locals:         5       0       0       0       0       0       0       0       0       0       0       0       
      +0       0       0       0       0
  1974 ;;      Temps:          1       0       0       0       0       0       0       0       0       0       0       0       
      +0       0       0       0       0
  1975 ;;      Totals:         8       0       0       0       0       0       0       0       0       0       0       0       
      +0       0       0       0       0
  1976 ;;Total ram usage:        8 bytes
  1977 ;; Hardware stack levels used: 1
  1978 ;; Hardware stack levels required when called: 4
  1979 ;; This function calls:
  1980 ;;		_gpio_pin_read_logic
  1981 ;;		_gpio_pin_write_logic
  1982 ;; This function is called by:
  1983 ;;		_main
  1984 ;; This function uses a non-reentrant model
  1985 ;;
  1986                           
  1987                           	psect	text6
  1988   0018B8                     __ptext6:
  1989                           	callstack 0
  1990   0018B8                     _keypad_get_value:
  1991                           	callstack 26
  1992   0018B8                     
  1993                           ;ECU_layer/keypad/ecu_key_pad.c: 40:      uint8 l_rows_counter = 0, l_columns_counter = 
      +                          0 , l_counter = 0;
  1994   0018B8  0E00               	movlw	0
  1995   0018BA  6E4D               	movwf	keypad_get_value@l_rows_counter^0,c
  1996   0018BC  0E00               	movlw	0
  1997   0018BE  6E4E               	movwf	keypad_get_value@l_columns_counter^0,c
  1998   0018C0  0E00               	movlw	0
  1999   0018C2  6E4C               	movwf	keypad_get_value@l_counter^0,c
  2000                           
  2001                           ;ECU_layer/keypad/ecu_key_pad.c: 41:      uint8 column_logic = 0;
  2002   0018C4  0E00               	movlw	0
  2003   0018C6  6E4B               	movwf	keypad_get_value@column_logic^0,c
  2004                           
  2005                           ;ECU_layer/keypad/ecu_key_pad.c: 42:        if((((void*)0)==_keypad_obj) || (((void*)0)=
      +                          = value) ){
  2006   0018C8  5047               	movf	keypad_get_value@_keypad_obj^0,w,c
  2007   0018CA  B4D8               	btfsc	status,2,c
  2008   0018CC  EF6A  F00C         	goto	u1581
  2009   0018D0  EF6C  F00C         	goto	u1580
  2010   0018D4                     u1581:
  2011   0018D4  EF74  F00C         	goto	l2648
  2012   0018D8                     u1580:
  2013   0018D8  5048               	movf	keypad_get_value@value^0,w,c
  2014   0018DA  A4D8               	btfss	status,2,c
  2015   0018DC  EF72  F00C         	goto	u1591
  2016   0018E0  EF74  F00C         	goto	u1590
  2017   0018E4                     u1591:
  2018   0018E4  EF78  F00C         	goto	l2650
  2019   0018E8                     u1590:
  2020   0018E8                     l2648:
  2021                           
  2022                           ;ECU_layer/keypad/ecu_key_pad.c: 43:            ret = (std_returntype)0x00 ;
  2023   0018E8  0E00               	movlw	0
  2024   0018EA  6E4A               	movwf	keypad_get_value@ret^0,c
  2025                           
  2026                           ;ECU_layer/keypad/ecu_key_pad.c: 44:        }
  2027   0018EC  EFC9  F00C         	goto	l2690
  2028   0018F0                     l2650:
  2029                           
  2030                           ;ECU_layer/keypad/ecu_key_pad.c: 46:         {;ECU_layer/keypad/ecu_key_pad.c: 47:      
      +                                for(l_rows_counter = 0 ;l_rows_counter<4;l_rows_counter++){
  2031   0018F0  0E00               	movlw	0
  2032   0018F2  6E4D               	movwf	keypad_get_value@l_rows_counter^0,c
  2033   0018F4                     l2656:
  2034                           
  2035                           ;ECU_layer/keypad/ecu_key_pad.c: 48:                for(l_counter = 0 ;l_counter<4;l_cou
      +                          nter++){
  2036   0018F4  0E00               	movlw	0
  2037   0018F6  6E4C               	movwf	keypad_get_value@l_counter^0,c
  2038   0018F8                     l2662:
  2039                           
  2040                           ;ECU_layer/keypad/ecu_key_pad.c: 49:                    gpio_pin_write_logic(&(_keypad_o
      +                          bj->keypad_row_pins[l_counter]), LOW);
  2041   0018F8  5047               	movf	keypad_get_value@_keypad_obj^0,w,c
  2042   0018FA  244C               	addwf	keypad_get_value@l_counter^0,w,c
  2043   0018FC  6E3F               	movwf	gpio_pin_write_logic@_pin_config^0,c
  2044   0018FE  0E00               	movlw	0
  2045   001900  6E40               	movwf	gpio_pin_write_logic@logic^0,c
  2046   001902  EC61  F00B         	call	_gpio_pin_write_logic	;wreg free
  2047   001906                     
  2048                           ;ECU_layer/keypad/ecu_key_pad.c: 50:                }
  2049   001906  2A4C               	incf	keypad_get_value@l_counter^0,f,c
  2050   001908  0E03               	movlw	3
  2051   00190A  644C               	cpfsgt	keypad_get_value@l_counter^0,c
  2052   00190C  EF8A  F00C         	goto	u1601
  2053   001910  EF8C  F00C         	goto	u1600
  2054   001914                     u1601:
  2055   001914  EF7C  F00C         	goto	l2662
  2056   001918                     u1600:
  2057   001918                     
  2058                           ;ECU_layer/keypad/ecu_key_pad.c: 51:                gpio_pin_write_logic(&(_keypad_obj->
      +                          keypad_row_pins[l_rows_counter]), HIGH);
  2059   001918  5047               	movf	keypad_get_value@_keypad_obj^0,w,c
  2060   00191A  244D               	addwf	keypad_get_value@l_rows_counter^0,w,c
  2061   00191C  6E3F               	movwf	gpio_pin_write_logic@_pin_config^0,c
  2062   00191E  0E01               	movlw	1
  2063   001920  6E40               	movwf	gpio_pin_write_logic@logic^0,c
  2064   001922  EC61  F00B         	call	_gpio_pin_write_logic	;wreg free
  2065   001926                     
  2066                           ;ECU_layer/keypad/ecu_key_pad.c: 52:                for(l_columns_counter = 0 ;l_columns
      +                          _counter<4;l_columns_counter++){
  2067   001926  0E00               	movlw	0
  2068   001928  6E4E               	movwf	keypad_get_value@l_columns_counter^0,c
  2069   00192A                     l2676:
  2070                           
  2071                           ;ECU_layer/keypad/ecu_key_pad.c: 53:                    ret = gpio_pin_read_logic(&(_key
      +                          pad_obj->keypad_column_pins[l_columns_counter]),&column_logic);
  2072   00192A  5047               	movf	keypad_get_value@_keypad_obj^0,w,c
  2073   00192C  244E               	addwf	keypad_get_value@l_columns_counter^0,w,c
  2074   00192E  0F04               	addlw	4
  2075   001930  6E3F               	movwf	gpio_pin_read_logic@_pin_config^0,c
  2076   001932  0E4B               	movlw	low keypad_get_value@column_logic
  2077   001934  6E40               	movwf	gpio_pin_read_logic@logic^0,c
  2078   001936  ECD9  F00D         	call	_gpio_pin_read_logic	;wreg free
  2079   00193A  6E4A               	movwf	keypad_get_value@ret^0,c
  2080   00193C                     
  2081                           ;ECU_layer/keypad/ecu_key_pad.c: 54:                    if(HIGH == column_logic){
  2082   00193C  044B               	decf	keypad_get_value@column_logic^0,w,c
  2083   00193E  A4D8               	btfss	status,2,c
  2084   001940  EFA4  F00C         	goto	u1611
  2085   001944  EFA6  F00C         	goto	u1610
  2086   001948                     u1611:
  2087   001948  EFB7  F00C         	goto	l2682
  2088   00194C                     u1610:
  2089   00194C                     
  2090                           ;ECU_layer/keypad/ecu_key_pad.c: 55:                        *value = btn_values[l_rows_c
      +                          ounter][l_columns_counter];
  2091   00194C  504D               	movf	keypad_get_value@l_rows_counter^0,w,c
  2092   00194E  0D04               	mullw	4
  2093   001950  50F3               	movf	243,w,c
  2094   001952  0F01               	addlw	low _btn_values
  2095   001954  244E               	addwf	keypad_get_value@l_columns_counter^0,w,c
  2096   001956  6E49               	movwf	??_keypad_get_value^0,c
  2097   001958  C049  FFF6         	movff	??_keypad_get_value,tblptrl
  2098   00195C                     	if	1	;There is more than 1 active tblptr byte
  2099   00195C  0E10               	movlw	high __smallconst
  2100   00195E  6EF7               	movwf	tblptrh,c
  2101   001960                     	endif
  2102   001960                     	if	1	;Program memory is < 0x10000, tblptru is always zero
  2103   001960  6AF8               	clrf	tblptru,c
  2104   001962                     	endif
  2105   001962                     	if	0	;tblptru may be non-zero
  2106   001962                     	endif
  2107   001962  5048               	movf	keypad_get_value@value^0,w,c
  2108   001964  6ED9               	movwf	fsr2l,c
  2109   001966  6ADA               	clrf	fsr2h,c
  2110   001968  0008               	tblrd		*
  2111   00196A  CFF5 FFDF          	movff	tablat,indf2
  2112   00196E                     l2682:
  2113                           
  2114                           ;ECU_layer/keypad/ecu_key_pad.c: 57:                }
  2115   00196E  2A4E               	incf	keypad_get_value@l_columns_counter^0,f,c
  2116   001970  0E03               	movlw	3
  2117   001972  644E               	cpfsgt	keypad_get_value@l_columns_counter^0,c
  2118   001974  EFBE  F00C         	goto	u1621
  2119   001978  EFC0  F00C         	goto	u1620
  2120   00197C                     u1621:
  2121   00197C  EF95  F00C         	goto	l2676
  2122   001980                     u1620:
  2123   001980                     
  2124                           ;ECU_layer/keypad/ecu_key_pad.c: 58:            }
  2125   001980  2A4D               	incf	keypad_get_value@l_rows_counter^0,f,c
  2126   001982  0E03               	movlw	3
  2127   001984  644D               	cpfsgt	keypad_get_value@l_rows_counter^0,c
  2128   001986  EFC7  F00C         	goto	u1631
  2129   00198A  EFC9  F00C         	goto	u1630
  2130   00198E                     u1631:
  2131   00198E  EF7A  F00C         	goto	l2656
  2132   001992                     u1630:
  2133   001992                     l2690:
  2134                           
  2135                           ;ECU_layer/keypad/ecu_key_pad.c: 60:      return ret;
  2136   001992  504A               	movf	keypad_get_value@ret^0,w,c
  2137   001994  0012               	return		;funcret
  2138   001996                     __end_of_keypad_get_value:
  2139                           	callstack 0
  2140                           
  2141 ;; *************** function _gpio_pin_read_logic *****************
  2142 ;; Defined at:
  2143 ;;		line 91 in file "Mcal_layer/GPIO/hal_gpio.c"
  2144 ;; Parameters:    Size  Location     Type
  2145 ;;  _pin_config     1    2[COMRAM] PTR const struct .
  2146 ;;		 -> key_pad$keypad_column_pins(4), key_pad(8), 
  2147 ;;  logic           1    3[COMRAM] PTR enum E2978
  2148 ;;		 -> keypad_get_value@column_logic(1), 
  2149 ;; Auto vars:     Size  Location     Type
  2150 ;;  ret             1    8[COMRAM] unsigned char 
  2151 ;; Return value:  Size  Location     Type
  2152 ;;                  1    wreg      unsigned char 
  2153 ;; Registers used:
  2154 ;;		wreg, fsr1l, fsr1h, fsr2l, fsr2h, status,2, status,0, prodl, prodh
  2155 ;; Tracked objects:
  2156 ;;		On entry : 0/0
  2157 ;;		On exit  : 0/0
  2158 ;;		Unchanged: 0/0
  2159 ;; Data sizes:     COMRAM   BANK0   BANK1   BANK2   BANK3   BANK4   BANK5   BANK6   BANK7   BANK8   BANK9  BANK10  BANK1
      +1  BANK12  BANK13  BANK14  BANK15
  2160 ;;      Params:         2       0       0       0       0       0       0       0       0       0       0       0       
      +0       0       0       0       0
  2161 ;;      Locals:         1       0       0       0       0       0       0       0       0       0       0       0       
      +0       0       0       0       0
  2162 ;;      Temps:          4       0       0       0       0       0       0       0       0       0       0       0       
      +0       0       0       0       0
  2163 ;;      Totals:         7       0       0       0       0       0       0       0       0       0       0       0       
      +0       0       0       0       0
  2164 ;;Total ram usage:        7 bytes
  2165 ;; Hardware stack levels used: 1
  2166 ;; Hardware stack levels required when called: 3
  2167 ;; This function calls:
  2168 ;;		Nothing
  2169 ;; This function is called by:
  2170 ;;		_keypad_get_value
  2171 ;; This function uses a non-reentrant model
  2172 ;;
  2173                           
  2174                           	psect	text7
  2175   001BB2                     __ptext7:
  2176                           	callstack 0
  2177   001BB2                     _gpio_pin_read_logic:
  2178                           	callstack 26
  2179   001BB2                     
  2180                           ;Mcal_layer/GPIO/hal_gpio.c: 92:     std_returntype ret = (std_returntype)0x01;
  2181   001BB2  0E01               	movlw	1
  2182   001BB4  6E45               	movwf	gpio_pin_read_logic@ret^0,c
  2183                           
  2184                           ;Mcal_layer/GPIO/hal_gpio.c: 93:     if(((void*)0)==_pin_config || ((void*)0) == logic |
      +                          |_pin_config->pin > 8 -1)
  2185   001BB6  503F               	movf	gpio_pin_read_logic@_pin_config^0,w,c
  2186   001BB8  B4D8               	btfsc	status,2,c
  2187   001BBA  EFE1  F00D         	goto	u1441
  2188   001BBE  EFE3  F00D         	goto	u1440
  2189   001BC2                     u1441:
  2190   001BC2  EFFB  F00D         	goto	l2478
  2191   001BC6                     u1440:
  2192   001BC6  5040               	movf	gpio_pin_read_logic@logic^0,w,c
  2193   001BC8  B4D8               	btfsc	status,2,c
  2194   001BCA  EFE9  F00D         	goto	u1451
  2195   001BCE  EFEB  F00D         	goto	u1450
  2196   001BD2                     u1451:
  2197   001BD2  EFFB  F00D         	goto	l2478
  2198   001BD6                     u1450:
  2199   001BD6  503F               	movf	gpio_pin_read_logic@_pin_config^0,w,c
  2200   001BD8  6ED9               	movwf	fsr2l,c
  2201   001BDA  6ADA               	clrf	fsr2h,c
  2202   001BDC  30DF               	rrcf	223,w,c
  2203   001BDE  32E8               	rrcf	wreg,f,c
  2204   001BE0  32E8               	rrcf	wreg,f,c
  2205   001BE2  0B07               	andlw	7
  2206   001BE4  6E41               	movwf	??_gpio_pin_read_logic^0,c
  2207   001BE6  0E07               	movlw	7
  2208   001BE8  6441               	cpfsgt	??_gpio_pin_read_logic^0,c
  2209   001BEA  EFF9  F00D         	goto	u1461
  2210   001BEE  EFFB  F00D         	goto	u1460
  2211   001BF2                     u1461:
  2212   001BF2  EFFF  F00D         	goto	l2480
  2213   001BF6                     u1460:
  2214   001BF6                     l2478:
  2215                           
  2216                           ;Mcal_layer/GPIO/hal_gpio.c: 94:     {;Mcal_layer/GPIO/hal_gpio.c: 95:         ret = (st
      +                          d_returntype)0x00 ;
  2217   001BF6  0E00               	movlw	0
  2218   001BF8  6E45               	movwf	gpio_pin_read_logic@ret^0,c
  2219                           
  2220                           ;Mcal_layer/GPIO/hal_gpio.c: 96:     }
  2221   001BFA  EF29  F00E         	goto	l2482
  2222   001BFE                     l2480:
  2223                           
  2224                           ;Mcal_layer/GPIO/hal_gpio.c: 98:             *logic = ((*port_reg[_pin_config->port] >> 
      +                          _pin_config->pin) & (uint8)1);
  2225   001BFE  5040               	movf	gpio_pin_read_logic@logic^0,w,c
  2226   001C00  6ED9               	movwf	fsr2l,c
  2227   001C02  6ADA               	clrf	fsr2h,c
  2228   001C04  503F               	movf	gpio_pin_read_logic@_pin_config^0,w,c
  2229   001C06  6EE1               	movwf	fsr1l,c
  2230   001C08  6AE2               	clrf	fsr1h,c
  2231   001C0A  30E7               	rrcf	231,w,c
  2232   001C0C  32E8               	rrcf	wreg,f,c
  2233   001C0E  32E8               	rrcf	wreg,f,c
  2234   001C10  0B07               	andlw	7
  2235   001C12  6E41               	movwf	??_gpio_pin_read_logic^0,c
  2236   001C14  503F               	movf	gpio_pin_read_logic@_pin_config^0,w,c
  2237   001C16  6EE1               	movwf	fsr1l,c
  2238   001C18  6AE2               	clrf	fsr1h,c
  2239   001C1A  50E7               	movf	231,w,c
  2240   001C1C  0B07               	andlw	7
  2241   001C1E  0D02               	mullw	2
  2242   001C20  50F3               	movf	243,w,c
  2243   001C22  0F01               	addlw	low _port_reg
  2244   001C24  6EE1               	movwf	fsr1l,c
  2245   001C26  6AE2               	clrf	fsr1h,c
  2246   001C28  CFE6 F042          	movff	postinc1,??_gpio_pin_read_logic+1
  2247   001C2C  CFE5 F043          	movff	postdec1,??_gpio_pin_read_logic+2
  2248   001C30  C042  FFE1         	movff	??_gpio_pin_read_logic+1,fsr1l
  2249   001C34  C043  FFE2         	movff	??_gpio_pin_read_logic+2,fsr1h
  2250   001C38  50E7               	movf	indf1,w,c
  2251   001C3A  6E44               	movwf	(??_gpio_pin_read_logic+3)^0,c
  2252   001C3C  2A41               	incf	??_gpio_pin_read_logic^0,f,c
  2253   001C3E  EF23  F00E         	goto	u1474
  2254   001C42                     u1475:
  2255   001C42  90D8               	bcf	status,0,c
  2256   001C44  3244               	rrcf	(??_gpio_pin_read_logic+3)^0,f,c
  2257   001C46                     u1474:
  2258   001C46  2E41               	decfsz	??_gpio_pin_read_logic^0,f,c
  2259   001C48  EF21  F00E         	goto	u1475
  2260   001C4C  5044               	movf	(??_gpio_pin_read_logic+3)^0,w,c
  2261   001C4E  0B01               	andlw	1
  2262   001C50  6EDF               	movwf	indf2,c
  2263   001C52                     l2482:
  2264                           
  2265                           ;Mcal_layer/GPIO/hal_gpio.c: 101:     return ret;
  2266   001C52  5045               	movf	gpio_pin_read_logic@ret^0,w,c
  2267   001C54  0012               	return		;funcret
  2268   001C56                     __end_of_gpio_pin_read_logic:
  2269                           	callstack 0
  2270                           
  2271 ;; *************** function _gpio_port_write_logic *****************
  2272 ;; Defined at:
  2273 ;;		line 172 in file "Mcal_layer/GPIO/hal_gpio.c"
  2274 ;; Parameters:    Size  Location     Type
  2275 ;;  port            1    wreg     enum E2996
  2276 ;;  logic           1   10[COMRAM] unsigned char 
  2277 ;; Auto vars:     Size  Location     Type
  2278 ;;  port            1   14[COMRAM] enum E2996
  2279 ;;  ret             1   13[COMRAM] unsigned char 
  2280 ;; Return value:  Size  Location     Type
  2281 ;;                  1    wreg      unsigned char 
  2282 ;; Registers used:
  2283 ;;		wreg, fsr2l, fsr2h, status,2, status,0, prodl, prodh
  2284 ;; Tracked objects:
  2285 ;;		On entry : 0/0
  2286 ;;		On exit  : 0/0
  2287 ;;		Unchanged: 0/0
  2288 ;; Data sizes:     COMRAM   BANK0   BANK1   BANK2   BANK3   BANK4   BANK5   BANK6   BANK7   BANK8   BANK9  BANK10  BANK1
      +1  BANK12  BANK13  BANK14  BANK15
  2289 ;;      Params:         1       0       0       0       0       0       0       0       0       0       0       0       
      +0       0       0       0       0
  2290 ;;      Locals:         2       0       0       0       0       0       0       0       0       0       0       0       
      +0       0       0       0       0
  2291 ;;      Temps:          2       0       0       0       0       0       0       0       0       0       0       0       
      +0       0       0       0       0
  2292 ;;      Totals:         5       0       0       0       0       0       0       0       0       0       0       0       
      +0       0       0       0       0
  2293 ;;Total ram usage:        5 bytes
  2294 ;; Hardware stack levels used: 1
  2295 ;; Hardware stack levels required when called: 3
  2296 ;; This function calls:
  2297 ;;		Nothing
  2298 ;; This function is called by:
  2299 ;;		_main
  2300 ;; This function uses a non-reentrant model
  2301 ;;
  2302                           
  2303                           	psect	text8
  2304   00208A                     __ptext8:
  2305                           	callstack 0
  2306   00208A                     _gpio_port_write_logic:
  2307                           	callstack 27
  2308                           
  2309                           ;incstack = 0
  2310                           ;gpio_port_write_logic@port stored from wreg
  2311   00208A  6E4B               	movwf	gpio_port_write_logic@port^0,c
  2312   00208C                     
  2313                           ;Mcal_layer/GPIO/hal_gpio.c: 173:     std_returntype ret = (std_returntype)0x01;
  2314   00208C  0E01               	movlw	1
  2315   00208E  6E4A               	movwf	gpio_port_write_logic@ret^0,c
  2316   002090                     
  2317                           ;Mcal_layer/GPIO/hal_gpio.c: 174:        if( port > 5 -1)
  2318   002090  0E04               	movlw	4
  2319   002092  644B               	cpfsgt	gpio_port_write_logic@port^0,c
  2320   002094  EF4E  F010         	goto	u1691
  2321   002098  EF50  F010         	goto	u1690
  2322   00209C                     u1691:
  2323   00209C  EF54  F010         	goto	l2750
  2324   0020A0                     u1690:
  2325   0020A0                     
  2326                           ;Mcal_layer/GPIO/hal_gpio.c: 175:     {;Mcal_layer/GPIO/hal_gpio.c: 176:         ret = (
      +                          std_returntype)0x00 ;
  2327   0020A0  0E00               	movlw	0
  2328   0020A2  6E4A               	movwf	gpio_port_write_logic@ret^0,c
  2329                           
  2330                           ;Mcal_layer/GPIO/hal_gpio.c: 177:     }
  2331   0020A4  EF64  F010         	goto	l2752
  2332   0020A8                     l2750:
  2333                           
  2334                           ;Mcal_layer/GPIO/hal_gpio.c: 179:            *lat_reg[port] = logic;
  2335   0020A8  504B               	movf	gpio_port_write_logic@port^0,w,c
  2336   0020AA  0D02               	mullw	2
  2337   0020AC  50F3               	movf	243,w,c
  2338   0020AE  0F0B               	addlw	low _lat_reg
  2339   0020B0  6ED9               	movwf	fsr2l,c
  2340   0020B2  6ADA               	clrf	fsr2h,c
  2341   0020B4  CFDE F048          	movff	postinc2,??_gpio_port_write_logic
  2342   0020B8  CFDD F049          	movff	postdec2,??_gpio_port_write_logic+1
  2343   0020BC  C048  FFD9         	movff	??_gpio_port_write_logic,fsr2l
  2344   0020C0  C049  FFDA         	movff	??_gpio_port_write_logic+1,fsr2h
  2345   0020C4  C047  FFDF         	movff	gpio_port_write_logic@logic,indf2
  2346   0020C8                     l2752:
  2347                           
  2348                           ;Mcal_layer/GPIO/hal_gpio.c: 183:     return ret;
  2349   0020C8  504A               	movf	gpio_port_write_logic@ret^0,w,c
  2350   0020CA  0012               	return		;funcret
  2351   0020CC                     __end_of_gpio_port_write_logic:
  2352                           	callstack 0
  2353                           
  2354 ;; *************** function _application_initialize *****************
  2355 ;; Defined at:
  2356 ;;		line 209 in file "application.c"
  2357 ;; Parameters:    Size  Location     Type
  2358 ;;		None
  2359 ;; Auto vars:     Size  Location     Type
  2360 ;;  ret             1    0        unsigned char 
  2361 ;; Return value:  Size  Location     Type
  2362 ;;                  1    wreg      void 
  2363 ;; Registers used:
  2364 ;;		wreg, fsr2l, fsr2h, status,2, status,0, prodl, prodh, cstack
  2365 ;; Tracked objects:
  2366 ;;		On entry : 0/0
  2367 ;;		On exit  : 0/0
  2368 ;;		Unchanged: 0/0
  2369 ;; Data sizes:     COMRAM   BANK0   BANK1   BANK2   BANK3   BANK4   BANK5   BANK6   BANK7   BANK8   BANK9  BANK10  BANK1
      +1  BANK12  BANK13  BANK14  BANK15
  2370 ;;      Params:         0       0       0       0       0       0       0       0       0       0       0       0       
      +0       0       0       0       0
  2371 ;;      Locals:         0       0       0       0       0       0       0       0       0       0       0       0       
      +0       0       0       0       0
  2372 ;;      Temps:          0       0       0       0       0       0       0       0       0       0       0       0       
      +0       0       0       0       0
  2373 ;;      Totals:         0       0       0       0       0       0       0       0       0       0       0       0       
      +0       0       0       0       0
  2374 ;;Total ram usage:        0 bytes
  2375 ;; Hardware stack levels used: 1
  2376 ;; Hardware stack levels required when called: 7
  2377 ;; This function calls:
  2378 ;;		_Timer0_Init
  2379 ;;		_gpio_port_direction_initialize
  2380 ;;		_keypad_initialize
  2381 ;;		_lcd_4bit_initialize
  2382 ;;		_sev_seg_initialize
  2383 ;; This function is called by:
  2384 ;;		_main
  2385 ;; This function uses a non-reentrant model
  2386 ;;
  2387                           
  2388                           	psect	text9
  2389   00229C                     __ptext9:
  2390                           	callstack 0
  2391   00229C                     _application_initialize:
  2392                           	callstack 23
  2393   00229C  0E2B               	movlw	low _timer_0
  2394   00229E  6E41               	movwf	Timer0_Init@_timer^0,c
  2395   0022A0  EC2B  F00E         	call	_Timer0_Init	;wreg free
  2396   0022A4  0E32               	movlw	low _lcd_1
  2397   0022A6  6E4F               	movwf	lcd_4bit_initialize@lcd^0,c
  2398   0022A8  ECE9  F00B         	call	_lcd_4bit_initialize	;wreg free
  2399   0022AC  0E23               	movlw	low _key_pad
  2400   0022AE  6E4A               	movwf	keypad_initialize@_keypad_obj^0,c
  2401   0022B0  ECE8  F00E         	call	_keypad_initialize	;wreg free
  2402   0022B4  0E38               	movlw	low _seg_1
  2403   0022B6  6E4A               	movwf	sev_seg_initialize@seg^0,c
  2404   0022B8  EC21  F010         	call	_sev_seg_initialize	;wreg free
  2405   0022BC  0E00               	movlw	0
  2406   0022BE  6E3F               	movwf	gpio_port_direction_initialize@direction^0,c
  2407   0022C0  0E01               	movlw	1
  2408   0022C2  EC66  F010         	call	_gpio_port_direction_initialize
  2409   0022C6  0012               	return		;funcret
  2410   0022C8                     __end_of_application_initialize:
  2411                           	callstack 0
  2412                           
  2413 ;; *************** function _sev_seg_initialize *****************
  2414 ;; Defined at:
  2415 ;;		line 9 in file "ECU_layer/sev_seg/ecu_sev_seg.c"
  2416 ;; Parameters:    Size  Location     Type
  2417 ;;  seg             1   13[COMRAM] PTR const struct .
  2418 ;;		 -> seg_1(5), 
  2419 ;; Auto vars:     Size  Location     Type
  2420 ;;  ret             1   14[COMRAM] unsigned char 
  2421 ;; Return value:  Size  Location     Type
  2422 ;;                  1    wreg      unsigned char 
  2423 ;; Registers used:
  2424 ;;		wreg, fsr2l, fsr2h, status,2, status,0, prodl, prodh, cstack
  2425 ;; Tracked objects:
  2426 ;;		On entry : 0/0
  2427 ;;		On exit  : 0/0
  2428 ;;		Unchanged: 0/0
  2429 ;; Data sizes:     COMRAM   BANK0   BANK1   BANK2   BANK3   BANK4   BANK5   BANK6   BANK7   BANK8   BANK9  BANK10  BANK1
      +1  BANK12  BANK13  BANK14  BANK15
  2430 ;;      Params:         1       0       0       0       0       0       0       0       0       0       0       0       
      +0       0       0       0       0
  2431 ;;      Locals:         1       0       0       0       0       0       0       0       0       0       0       0       
      +0       0       0       0       0
  2432 ;;      Temps:          0       0       0       0       0       0       0       0       0       0       0       0       
      +0       0       0       0       0
  2433 ;;      Totals:         2       0       0       0       0       0       0       0       0       0       0       0       
      +0       0       0       0       0
  2434 ;;Total ram usage:        2 bytes
  2435 ;; Hardware stack levels used: 1
  2436 ;; Hardware stack levels required when called: 5
  2437 ;; This function calls:
  2438 ;;		_gpio_pin__initialize
  2439 ;; This function is called by:
  2440 ;;		_application_initialize
  2441 ;; This function uses a non-reentrant model
  2442 ;;
  2443                           
  2444                           	psect	text10
  2445   002042                     __ptext10:
  2446                           	callstack 0
  2447   002042                     _sev_seg_initialize:
  2448                           	callstack 24
  2449   002042                     
  2450                           ;ECU_layer/sev_seg/ecu_sev_seg.c: 11:        if(((void*)0)==seg){
  2451   002042  504A               	movf	sev_seg_initialize@seg^0,w,c
  2452   002044  A4D8               	btfss	status,2,c
  2453   002046  EF27  F010         	goto	u1551
  2454   00204A  EF29  F010         	goto	u1550
  2455   00204E                     u1551:
  2456   00204E  EF2D  F010         	goto	l2596
  2457   002052                     u1550:
  2458   002052                     
  2459                           ;ECU_layer/sev_seg/ecu_sev_seg.c: 12:            ret = (std_returntype)0x00 ;
  2460   002052  0E00               	movlw	0
  2461   002054  6E4B               	movwf	sev_seg_initialize@ret^0,c
  2462                           
  2463                           ;ECU_layer/sev_seg/ecu_sev_seg.c: 13:        }
  2464   002056  EF43  F010         	goto	l2598
  2465   00205A                     l2596:
  2466                           
  2467                           ;ECU_layer/sev_seg/ecu_sev_seg.c: 15:         {;ECU_layer/sev_seg/ecu_sev_seg.c: 16:    
      +                                  ret = gpio_pin__initialize(&(seg->segment_pins[0]));
  2468   00205A  C04A  F047         	movff	sev_seg_initialize@seg,gpio_pin__initialize@_pin_config
  2469   00205E  EC1C  F00F         	call	_gpio_pin__initialize	;wreg free
  2470   002062  6E4B               	movwf	sev_seg_initialize@ret^0,c
  2471                           
  2472                           ;ECU_layer/sev_seg/ecu_sev_seg.c: 17:            ret = gpio_pin__initialize(&(seg->segme
      +                          nt_pins[1]));
  2473   002064  284A               	incf	sev_seg_initialize@seg^0,w,c
  2474   002066  6E47               	movwf	gpio_pin__initialize@_pin_config^0,c
  2475   002068  EC1C  F00F         	call	_gpio_pin__initialize	;wreg free
  2476   00206C  6E4B               	movwf	sev_seg_initialize@ret^0,c
  2477                           
  2478                           ;ECU_layer/sev_seg/ecu_sev_seg.c: 18:            ret = gpio_pin__initialize(&(seg->segme
      +                          nt_pins[2]));
  2479   00206E  504A               	movf	sev_seg_initialize@seg^0,w,c
  2480   002070  0F02               	addlw	2
  2481   002072  6E47               	movwf	gpio_pin__initialize@_pin_config^0,c
  2482   002074  EC1C  F00F         	call	_gpio_pin__initialize	;wreg free
  2483   002078  6E4B               	movwf	sev_seg_initialize@ret^0,c
  2484                           
  2485                           ;ECU_layer/sev_seg/ecu_sev_seg.c: 19:            ret = gpio_pin__initialize(&(seg->segme
      +                          nt_pins[3]));
  2486   00207A  504A               	movf	sev_seg_initialize@seg^0,w,c
  2487   00207C  0F03               	addlw	3
  2488   00207E  6E47               	movwf	gpio_pin__initialize@_pin_config^0,c
  2489   002080  EC1C  F00F         	call	_gpio_pin__initialize	;wreg free
  2490   002084  6E4B               	movwf	sev_seg_initialize@ret^0,c
  2491   002086                     l2598:
  2492                           
  2493                           ;ECU_layer/sev_seg/ecu_sev_seg.c: 21:      return ret;
  2494   002086  504B               	movf	sev_seg_initialize@ret^0,w,c
  2495   002088  0012               	return		;funcret
  2496   00208A                     __end_of_sev_seg_initialize:
  2497                           	callstack 0
  2498                           
  2499 ;; *************** function _lcd_4bit_initialize *****************
  2500 ;; Defined at:
  2501 ;;		line 15 in file "ECU_layer/LCD/ecu_lcd.c"
  2502 ;; Parameters:    Size  Location     Type
  2503 ;;  lcd             1   18[COMRAM] PTR const struct .
  2504 ;;		 -> lcd_1(6), 
  2505 ;; Auto vars:     Size  Location     Type
  2506 ;;  ret             1   21[COMRAM] unsigned char 
  2507 ;;  l_data_pins_    1   20[COMRAM] unsigned char 
  2508 ;; Return value:  Size  Location     Type
  2509 ;;                  1    wreg      unsigned char 
  2510 ;; Registers used:
  2511 ;;		wreg, fsr2l, fsr2h, status,2, status,0, prodl, prodh, cstack
  2512 ;; Tracked objects:
  2513 ;;		On entry : 0/0
  2514 ;;		On exit  : 0/0
  2515 ;;		Unchanged: 0/0
  2516 ;; Data sizes:     COMRAM   BANK0   BANK1   BANK2   BANK3   BANK4   BANK5   BANK6   BANK7   BANK8   BANK9  BANK10  BANK1
      +1  BANK12  BANK13  BANK14  BANK15
  2517 ;;      Params:         1       0       0       0       0       0       0       0       0       0       0       0       
      +0       0       0       0       0
  2518 ;;      Locals:         2       0       0       0       0       0       0       0       0       0       0       0       
      +0       0       0       0       0
  2519 ;;      Temps:          1       0       0       0       0       0       0       0       0       0       0       0       
      +0       0       0       0       0
  2520 ;;      Totals:         4       0       0       0       0       0       0       0       0       0       0       0       
      +0       0       0       0       0
  2521 ;;Total ram usage:        4 bytes
  2522 ;; Hardware stack levels used: 1
  2523 ;; Hardware stack levels required when called: 6
  2524 ;; This function calls:
  2525 ;;		_gpio_pin__initialize
  2526 ;;		_lcd_4bit_send_command
  2527 ;;		_lcd_8bit_send_command
  2528 ;; This function is called by:
  2529 ;;		_application_initialize
  2530 ;; This function uses a non-reentrant model
  2531 ;;
  2532                           
  2533                           	psect	text11
  2534   0017D2                     __ptext11:
  2535                           	callstack 0
  2536   0017D2                     _lcd_4bit_initialize:
  2537                           	callstack 23
  2538   0017D2                     
  2539                           ;ECU_layer/LCD/ecu_lcd.c: 17:      uint8 l_data_pins_counter = 0;
  2540   0017D2  0E00               	movlw	0
  2541   0017D4  6E51               	movwf	lcd_4bit_initialize@l_data_pins_counter^0,c
  2542                           
  2543                           ;ECU_layer/LCD/ecu_lcd.c: 18:        if(((void*)0)==lcd){
  2544   0017D6  504F               	movf	lcd_4bit_initialize@lcd^0,w,c
  2545   0017D8  A4D8               	btfss	status,2,c
  2546   0017DA  EFF1  F00B         	goto	u1481
  2547   0017DE  EFF3  F00B         	goto	u1480
  2548   0017E2                     u1481:
  2549   0017E2  EFF7  F00B         	goto	l2490
  2550   0017E6                     u1480:
  2551   0017E6                     
  2552                           ;ECU_layer/LCD/ecu_lcd.c: 19:            ret = (std_returntype)0x00 ;
  2553   0017E6  0E00               	movlw	0
  2554   0017E8  6E52               	movwf	lcd_4bit_initialize@ret^0,c
  2555                           
  2556                           ;ECU_layer/LCD/ecu_lcd.c: 20:        }
  2557   0017EA  EF5A  F00C         	goto	l2526
  2558   0017EE                     l2490:
  2559                           
  2560                           ;ECU_layer/LCD/ecu_lcd.c: 22:         {;ECU_layer/LCD/ecu_lcd.c: 23:            ret = gp
      +                          io_pin__initialize(&(lcd->lcd_rs));
  2561   0017EE  C04F  F047         	movff	lcd_4bit_initialize@lcd,gpio_pin__initialize@_pin_config
  2562   0017F2  EC1C  F00F         	call	_gpio_pin__initialize	;wreg free
  2563   0017F6  6E52               	movwf	lcd_4bit_initialize@ret^0,c
  2564                           
  2565                           ;ECU_layer/LCD/ecu_lcd.c: 24:            ret = gpio_pin__initialize(&(lcd->lcd_en));
  2566   0017F8  284F               	incf	lcd_4bit_initialize@lcd^0,w,c
  2567   0017FA  6E47               	movwf	gpio_pin__initialize@_pin_config^0,c
  2568   0017FC  EC1C  F00F         	call	_gpio_pin__initialize	;wreg free
  2569   001800  6E52               	movwf	lcd_4bit_initialize@ret^0,c
  2570   001802                     
  2571                           ;ECU_layer/LCD/ecu_lcd.c: 25:            for (l_data_pins_counter=0;l_data_pins_counter<
      +                          4;l_data_pins_counter++){
  2572   001802  0E00               	movlw	0
  2573   001804  6E51               	movwf	lcd_4bit_initialize@l_data_pins_counter^0,c
  2574   001806                     l2498:
  2575   001806  504F               	movf	lcd_4bit_initialize@lcd^0,w,c
  2576   001808  2451               	addwf	lcd_4bit_initialize@l_data_pins_counter^0,w,c
  2577   00180A  0F02               	addlw	2
  2578   00180C  6E47               	movwf	gpio_pin__initialize@_pin_config^0,c
  2579   00180E  EC1C  F00F         	call	_gpio_pin__initialize	;wreg free
  2580   001812                     
  2581                           ;ECU_layer/LCD/ecu_lcd.c: 27:            }
  2582   001812  2A51               	incf	lcd_4bit_initialize@l_data_pins_counter^0,f,c
  2583   001814  0E03               	movlw	3
  2584   001816  6451               	cpfsgt	lcd_4bit_initialize@l_data_pins_counter^0,c
  2585   001818  EF10  F00C         	goto	u1491
  2586   00181C  EF12  F00C         	goto	u1490
  2587   001820                     u1491:
  2588   001820  EF03  F00C         	goto	l2498
  2589   001824                     u1490:
  2590   001824                     
  2591                           ;ECU_layer/LCD/ecu_lcd.c: 28:            _delay((unsigned long)((20)*(8000000/4000.0)));
  2592   001824  0E34               	movlw	52
  2593   001826  6E50               	movwf	??_lcd_4bit_initialize^0,c
  2594   001828  0EF2               	movlw	242
  2595   00182A                     u2297:
  2596   00182A  2EE8               	decfsz	wreg,f,c
  2597   00182C  D7FE               	bra	u2297
  2598   00182E  2E50               	decfsz	??_lcd_4bit_initialize^0,f,c
  2599   001830  D7FC               	bra	u2297
  2600   001832  C04F  F04A         	movff	lcd_4bit_initialize@lcd,lcd_4bit_send_command@lcd
  2601   001836  0E38               	movlw	56
  2602   001838  6E4B               	movwf	lcd_4bit_send_command@command^0,c
  2603   00183A  ECA4  F00F         	call	_lcd_4bit_send_command	;wreg free
  2604   00183E                     
  2605                           ;ECU_layer/LCD/ecu_lcd.c: 30:            _delay((unsigned long)((5)*(8000000/4000.0)));
  2606   00183E  0E0D               	movlw	13
  2607   001840  6E50               	movwf	??_lcd_4bit_initialize^0,c
  2608   001842  0EFC               	movlw	252
  2609   001844                     u2307:
  2610   001844  2EE8               	decfsz	wreg,f,c
  2611   001846  D7FE               	bra	u2307
  2612   001848  2E50               	decfsz	??_lcd_4bit_initialize^0,f,c
  2613   00184A  D7FC               	bra	u2307
  2614   00184C  C04F  F049         	movff	lcd_4bit_initialize@lcd,lcd_8bit_send_command@lcd
  2615   001850  0E38               	movlw	56
  2616   001852  6E4A               	movwf	lcd_8bit_send_command@command^0,c
  2617   001854  EC72  F00E         	call	_lcd_8bit_send_command	;wreg free
  2618   001858                     
  2619                           ;ECU_layer/LCD/ecu_lcd.c: 32:            _delay((unsigned long)((150)*(8000000/4000000.0
      +                          )));
  2620   001858  0E64               	movlw	100
  2621   00185A                     u2317:
  2622   00185A  2EE8               	decfsz	wreg,f,c
  2623   00185C  D7FE               	bra	u2317
  2624   00185E  C04F  F04A         	movff	lcd_4bit_initialize@lcd,lcd_4bit_send_command@lcd
  2625   001862  0E38               	movlw	56
  2626   001864  6E4B               	movwf	lcd_4bit_send_command@command^0,c
  2627   001866  ECA4  F00F         	call	_lcd_4bit_send_command	;wreg free
  2628   00186A  C04F  F04A         	movff	lcd_4bit_initialize@lcd,lcd_4bit_send_command@lcd
  2629   00186E  0E01               	movlw	1
  2630   001870  6E4B               	movwf	lcd_4bit_send_command@command^0,c
  2631   001872  ECA4  F00F         	call	_lcd_4bit_send_command	;wreg free
  2632   001876  C04F  F04A         	movff	lcd_4bit_initialize@lcd,lcd_4bit_send_command@lcd
  2633   00187A  0E02               	movlw	2
  2634   00187C  6E4B               	movwf	lcd_4bit_send_command@command^0,c
  2635   00187E  ECA4  F00F         	call	_lcd_4bit_send_command	;wreg free
  2636   001882  C04F  F04A         	movff	lcd_4bit_initialize@lcd,lcd_4bit_send_command@lcd
  2637   001886  0E06               	movlw	6
  2638   001888  6E4B               	movwf	lcd_4bit_send_command@command^0,c
  2639   00188A  ECA4  F00F         	call	_lcd_4bit_send_command	;wreg free
  2640   00188E  C04F  F04A         	movff	lcd_4bit_initialize@lcd,lcd_4bit_send_command@lcd
  2641   001892  0E0C               	movlw	12
  2642   001894  6E4B               	movwf	lcd_4bit_send_command@command^0,c
  2643   001896  ECA4  F00F         	call	_lcd_4bit_send_command	;wreg free
  2644   00189A  C04F  F04A         	movff	lcd_4bit_initialize@lcd,lcd_4bit_send_command@lcd
  2645   00189E  0E28               	movlw	40
  2646   0018A0  6E4B               	movwf	lcd_4bit_send_command@command^0,c
  2647   0018A2  ECA4  F00F         	call	_lcd_4bit_send_command	;wreg free
  2648   0018A6                     
  2649                           ;ECU_layer/LCD/ecu_lcd.c: 39:            ret = lcd_4bit_send_command(lcd,0x80);
  2650   0018A6  C04F  F04A         	movff	lcd_4bit_initialize@lcd,lcd_4bit_send_command@lcd
  2651   0018AA  0E80               	movlw	128
  2652   0018AC  6E4B               	movwf	lcd_4bit_send_command@command^0,c
  2653   0018AE  ECA4  F00F         	call	_lcd_4bit_send_command	;wreg free
  2654   0018B2  6E52               	movwf	lcd_4bit_initialize@ret^0,c
  2655   0018B4                     l2526:
  2656                           
  2657                           ;ECU_layer/LCD/ecu_lcd.c: 42:      return ret;
  2658   0018B4  5052               	movf	lcd_4bit_initialize@ret^0,w,c
  2659   0018B6  0012               	return		;funcret
  2660   0018B8                     __end_of_lcd_4bit_initialize:
  2661                           	callstack 0
  2662                           
  2663 ;; *************** function _lcd_8bit_send_command *****************
  2664 ;; Defined at:
  2665 ;;		line 157 in file "ECU_layer/LCD/ecu_lcd.c"
  2666 ;; Parameters:    Size  Location     Type
  2667 ;;  lcd             1   12[COMRAM] PTR const struct .
  2668 ;;		 -> lcd_1(6), 
  2669 ;;  command         1   13[COMRAM] unsigned char 
  2670 ;; Auto vars:     Size  Location     Type
  2671 ;;  l_pin_counte    1   17[COMRAM] unsigned char 
  2672 ;;  ret             1   16[COMRAM] unsigned char 
  2673 ;; Return value:  Size  Location     Type
  2674 ;;                  1    wreg      unsigned char 
  2675 ;; Registers used:
  2676 ;;		wreg, fsr2l, fsr2h, status,2, status,0, prodl, prodh, cstack
  2677 ;; Tracked objects:
  2678 ;;		On entry : 0/0
  2679 ;;		On exit  : 0/0
  2680 ;;		Unchanged: 0/0
  2681 ;; Data sizes:     COMRAM   BANK0   BANK1   BANK2   BANK3   BANK4   BANK5   BANK6   BANK7   BANK8   BANK9  BANK10  BANK1
      +1  BANK12  BANK13  BANK14  BANK15
  2682 ;;      Params:         2       0       0       0       0       0       0       0       0       0       0       0       
      +0       0       0       0       0
  2683 ;;      Locals:         2       0       0       0       0       0       0       0       0       0       0       0       
      +0       0       0       0       0
  2684 ;;      Temps:          2       0       0       0       0       0       0       0       0       0       0       0       
      +0       0       0       0       0
  2685 ;;      Totals:         6       0       0       0       0       0       0       0       0       0       0       0       
      +0       0       0       0       0
  2686 ;;Total ram usage:        6 bytes
  2687 ;; Hardware stack levels used: 1
  2688 ;; Hardware stack levels required when called: 5
  2689 ;; This function calls:
  2690 ;;		_gpio_pin_write_logic
  2691 ;;		_lcd_8bits_sned_enable_signal
  2692 ;; This function is called by:
  2693 ;;		_lcd_4bit_initialize
  2694 ;;		_lcd_8bit_initialize
  2695 ;;		_lcd_8bit_send_custome_char
  2696 ;;		_lcd_8bits_set_cursor
  2697 ;; This function uses a non-reentrant model
  2698 ;;
  2699                           
  2700                           	psect	text12
  2701   001CE4                     __ptext12:
  2702                           	callstack 0
  2703   001CE4                     _lcd_8bit_send_command:
  2704                           	callstack 23
  2705   001CE4                     
  2706                           ;ECU_layer/LCD/ecu_lcd.c: 159:     uint8 l_pin_counter = 0;
  2707   001CE4  0E00               	movlw	0
  2708   001CE6  6E4E               	movwf	lcd_8bit_send_command@l_pin_counter^0,c
  2709                           
  2710                           ;ECU_layer/LCD/ecu_lcd.c: 160:     if(((void*)0) == lcd){
  2711   001CE8  5049               	movf	lcd_8bit_send_command@lcd^0,w,c
  2712   001CEA  A4D8               	btfss	status,2,c
  2713   001CEC  EF7A  F00E         	goto	u1291
  2714   001CF0  EF7C  F00E         	goto	u1290
  2715   001CF4                     u1291:
  2716   001CF4  EF80  F00E         	goto	l2376
  2717   001CF8                     u1290:
  2718   001CF8                     
  2719                           ;ECU_layer/LCD/ecu_lcd.c: 161:         ret = (std_returntype)0x00;
  2720   001CF8  0E00               	movlw	0
  2721   001CFA  6E4D               	movwf	lcd_8bit_send_command@ret^0,c
  2722                           
  2723                           ;ECU_layer/LCD/ecu_lcd.c: 162:     }
  2724   001CFC  EFAB  F00E         	goto	l2392
  2725   001D00                     l2376:
  2726   001D00  C049  F03F         	movff	lcd_8bit_send_command@lcd,gpio_pin_write_logic@_pin_config
  2727   001D04  0E00               	movlw	0
  2728   001D06  6E40               	movwf	gpio_pin_write_logic@logic^0,c
  2729   001D08  EC61  F00B         	call	_gpio_pin_write_logic	;wreg free
  2730   001D0C                     
  2731                           ;ECU_layer/LCD/ecu_lcd.c: 168:         for(l_pin_counter=0; l_pin_counter<8; ++l_pin_cou
      +                          nter){
  2732   001D0C  0E00               	movlw	0
  2733   001D0E  6E4E               	movwf	lcd_8bit_send_command@l_pin_counter^0,c
  2734   001D10                     l2384:
  2735   001D10  5049               	movf	lcd_8bit_send_command@lcd^0,w,c
  2736   001D12  244E               	addwf	lcd_8bit_send_command@l_pin_counter^0,w,c
  2737   001D14  0F02               	addlw	2
  2738   001D16  6E3F               	movwf	gpio_pin_write_logic@_pin_config^0,c
  2739   001D18  C04E  F04B         	movff	lcd_8bit_send_command@l_pin_counter,??_lcd_8bit_send_command
  2740   001D1C  C04A  F04C         	movff	lcd_8bit_send_command@command,??_lcd_8bit_send_command+1
  2741   001D20  2A4B               	incf	??_lcd_8bit_send_command^0,f,c
  2742   001D22  EF95  F00E         	goto	u1304
  2743   001D26                     u1305:
  2744   001D26  90D8               	bcf	status,0,c
  2745   001D28  324C               	rrcf	(??_lcd_8bit_send_command+1)^0,f,c
  2746   001D2A                     u1304:
  2747   001D2A  2E4B               	decfsz	??_lcd_8bit_send_command^0,f,c
  2748   001D2C  EF93  F00E         	goto	u1305
  2749   001D30  504C               	movf	(??_lcd_8bit_send_command+1)^0,w,c
  2750   001D32  0B01               	andlw	1
  2751   001D34  6E40               	movwf	gpio_pin_write_logic@logic^0,c
  2752   001D36  EC61  F00B         	call	_gpio_pin_write_logic	;wreg free
  2753   001D3A                     
  2754                           ;ECU_layer/LCD/ecu_lcd.c: 170:         }
  2755   001D3A  2A4E               	incf	lcd_8bit_send_command@l_pin_counter^0,f,c
  2756   001D3C  0E07               	movlw	7
  2757   001D3E  644E               	cpfsgt	lcd_8bit_send_command@l_pin_counter^0,c
  2758   001D40  EFA4  F00E         	goto	u1311
  2759   001D44  EFA6  F00E         	goto	u1310
  2760   001D48                     u1311:
  2761   001D48  EF88  F00E         	goto	l2384
  2762   001D4C                     u1310:
  2763   001D4C                     
  2764                           ;ECU_layer/LCD/ecu_lcd.c: 172:         ret = lcd_8bits_sned_enable_signal(lcd);
  2765   001D4C  C049  F047         	movff	lcd_8bit_send_command@lcd,lcd_8bits_sned_enable_signal@lcd
  2766   001D50  EC64  F011         	call	_lcd_8bits_sned_enable_signal	;wreg free
  2767   001D54  6E4D               	movwf	lcd_8bit_send_command@ret^0,c
  2768   001D56                     l2392:
  2769                           
  2770                           ;ECU_layer/LCD/ecu_lcd.c: 174:     return ret;
  2771   001D56  504D               	movf	lcd_8bit_send_command@ret^0,w,c
  2772   001D58  0012               	return		;funcret
  2773   001D5A                     __end_of_lcd_8bit_send_command:
  2774                           	callstack 0
  2775                           
  2776 ;; *************** function _lcd_8bits_sned_enable_signal *****************
  2777 ;; Defined at:
  2778 ;;		line 312 in file "ECU_layer/LCD/ecu_lcd.c"
  2779 ;; Parameters:    Size  Location     Type
  2780 ;;  lcd             1   10[COMRAM] PTR const struct .
  2781 ;;		 -> lcd_1(6), 
  2782 ;; Auto vars:     Size  Location     Type
  2783 ;;  ret             1   11[COMRAM] unsigned char 
  2784 ;; Return value:  Size  Location     Type
  2785 ;;                  1    wreg      unsigned char 
  2786 ;; Registers used:
  2787 ;;		wreg, fsr2l, fsr2h, status,2, status,0, prodl, prodh, cstack
  2788 ;; Tracked objects:
  2789 ;;		On entry : 0/0
  2790 ;;		On exit  : 0/0
  2791 ;;		Unchanged: 0/0
  2792 ;; Data sizes:     COMRAM   BANK0   BANK1   BANK2   BANK3   BANK4   BANK5   BANK6   BANK7   BANK8   BANK9  BANK10  BANK1
      +1  BANK12  BANK13  BANK14  BANK15
  2793 ;;      Params:         1       0       0       0       0       0       0       0       0       0       0       0       
      +0       0       0       0       0
  2794 ;;      Locals:         1       0       0       0       0       0       0       0       0       0       0       0       
      +0       0       0       0       0
  2795 ;;      Temps:          0       0       0       0       0       0       0       0       0       0       0       0       
      +0       0       0       0       0
  2796 ;;      Totals:         2       0       0       0       0       0       0       0       0       0       0       0       
      +0       0       0       0       0
  2797 ;;Total ram usage:        2 bytes
  2798 ;; Hardware stack levels used: 1
  2799 ;; Hardware stack levels required when called: 4
  2800 ;; This function calls:
  2801 ;;		_gpio_pin_write_logic
  2802 ;; This function is called by:
  2803 ;;		_lcd_8bit_send_command
  2804 ;;		_lcd_8bit_send_char_data
  2805 ;; This function uses a non-reentrant model
  2806 ;;
  2807                           
  2808                           	psect	text13
  2809   0022C8                     __ptext13:
  2810                           	callstack 0
  2811   0022C8                     _lcd_8bits_sned_enable_signal:
  2812                           	callstack 23
  2813   0022C8  2847               	incf	lcd_8bits_sned_enable_signal@lcd^0,w,c
  2814   0022CA  6E3F               	movwf	gpio_pin_write_logic@_pin_config^0,c
  2815   0022CC  0E01               	movlw	1
  2816   0022CE  6E40               	movwf	gpio_pin_write_logic@logic^0,c
  2817   0022D0  EC61  F00B         	call	_gpio_pin_write_logic	;wreg free
  2818   0022D4                     
  2819                           ;ECU_layer/LCD/ecu_lcd.c: 315:      _delay((unsigned long)((5)*(8000000/4000000.0)));
  2820   0022D4  0E03               	movlw	3
  2821   0022D6                     u2327:
  2822   0022D6  2EE8               	decfsz	wreg,f,c
  2823   0022D8  D7FE               	bra	u2327
  2824   0022DA  0000               	nop	
  2825   0022DC                     
  2826                           ;ECU_layer/LCD/ecu_lcd.c: 316:      ret = gpio_pin_write_logic(&(lcd->lcd_en),LOW);
  2827   0022DC  2847               	incf	lcd_8bits_sned_enable_signal@lcd^0,w,c
  2828   0022DE  6E3F               	movwf	gpio_pin_write_logic@_pin_config^0,c
  2829   0022E0  0E00               	movlw	0
  2830   0022E2  6E40               	movwf	gpio_pin_write_logic@logic^0,c
  2831   0022E4  EC61  F00B         	call	_gpio_pin_write_logic	;wreg free
  2832   0022E8  6E48               	movwf	lcd_8bits_sned_enable_signal@ret^0,c
  2833   0022EA                     
  2834                           ;ECU_layer/LCD/ecu_lcd.c: 317:      return ret;
  2835   0022EA  5048               	movf	lcd_8bits_sned_enable_signal@ret^0,w,c
  2836   0022EC  0012               	return		;funcret
  2837   0022EE                     __end_of_lcd_8bits_sned_enable_signal:
  2838                           	callstack 0
  2839                           
  2840 ;; *************** function _lcd_4bit_send_command *****************
  2841 ;; Defined at:
  2842 ;;		line 44 in file "ECU_layer/LCD/ecu_lcd.c"
  2843 ;; Parameters:    Size  Location     Type
  2844 ;;  lcd             1   13[COMRAM] PTR const struct .
  2845 ;;		 -> lcd_1(6), 
  2846 ;;  command         1   14[COMRAM] unsigned char 
  2847 ;; Auto vars:     Size  Location     Type
  2848 ;;  ret             1   15[COMRAM] unsigned char 
  2849 ;; Return value:  Size  Location     Type
  2850 ;;                  1    wreg      unsigned char 
  2851 ;; Registers used:
  2852 ;;		wreg, fsr2l, fsr2h, status,2, status,0, prodl, prodh, cstack
  2853 ;; Tracked objects:
  2854 ;;		On entry : 0/0
  2855 ;;		On exit  : 0/0
  2856 ;;		Unchanged: 0/0
  2857 ;; Data sizes:     COMRAM   BANK0   BANK1   BANK2   BANK3   BANK4   BANK5   BANK6   BANK7   BANK8   BANK9  BANK10  BANK1
      +1  BANK12  BANK13  BANK14  BANK15
  2858 ;;      Params:         2       0       0       0       0       0       0       0       0       0       0       0       
      +0       0       0       0       0
  2859 ;;      Locals:         1       0       0       0       0       0       0       0       0       0       0       0       
      +0       0       0       0       0
  2860 ;;      Temps:          0       0       0       0       0       0       0       0       0       0       0       0       
      +0       0       0       0       0
  2861 ;;      Totals:         3       0       0       0       0       0       0       0       0       0       0       0       
      +0       0       0       0       0
  2862 ;;Total ram usage:        3 bytes
  2863 ;; Hardware stack levels used: 1
  2864 ;; Hardware stack levels required when called: 5
  2865 ;; This function calls:
  2866 ;;		_gpio_pin_write_logic
  2867 ;;		_lcd_4bits_sned_enable_signal
  2868 ;;		_lcd_send_4bits
  2869 ;; This function is called by:
  2870 ;;		_lcd_4bit_initialize
  2871 ;;		_lcd_4bits_set_cursor
  2872 ;;		_main
  2873 ;;		_lcd_4bit_send_custome_char
  2874 ;; This function uses a non-reentrant model
  2875 ;;
  2876                           
  2877                           	psect	text14
  2878   001F48                     __ptext14:
  2879                           	callstack 0
  2880   001F48                     _lcd_4bit_send_command:
  2881                           	callstack 23
  2882   001F48                     
  2883                           ;ECU_layer/LCD/ecu_lcd.c: 46:        if(((void*)0)==lcd){
  2884   001F48  504A               	movf	lcd_4bit_send_command@lcd^0,w,c
  2885   001F4A  A4D8               	btfss	status,2,c
  2886   001F4C  EFAA  F00F         	goto	u1281
  2887   001F50  EFAC  F00F         	goto	u1280
  2888   001F54                     u1281:
  2889   001F54  EFB0  F00F         	goto	l2366
  2890   001F58                     u1280:
  2891   001F58                     
  2892                           ;ECU_layer/LCD/ecu_lcd.c: 47:            ret = (std_returntype)0x00 ;
  2893   001F58  0E00               	movlw	0
  2894   001F5A  6E4C               	movwf	lcd_4bit_send_command@ret^0,c
  2895                           
  2896                           ;ECU_layer/LCD/ecu_lcd.c: 48:        }
  2897   001F5C  EFCE  F00F         	goto	l2368
  2898   001F60                     l2366:
  2899                           
  2900                           ;ECU_layer/LCD/ecu_lcd.c: 50:         {;ECU_layer/LCD/ecu_lcd.c: 51:            ret = gp
      +                          io_pin_write_logic(&(lcd->lcd_rs),LOW);
  2901   001F60  C04A  F03F         	movff	lcd_4bit_send_command@lcd,gpio_pin_write_logic@_pin_config
  2902   001F64  0E00               	movlw	0
  2903   001F66  6E40               	movwf	gpio_pin_write_logic@logic^0,c
  2904   001F68  EC61  F00B         	call	_gpio_pin_write_logic	;wreg free
  2905   001F6C  6E4C               	movwf	lcd_4bit_send_command@ret^0,c
  2906                           
  2907                           ;ECU_layer/LCD/ecu_lcd.c: 52:            ret = lcd_send_4bits(lcd , command >> 4 );
  2908   001F6E  C04A  F047         	movff	lcd_4bit_send_command@lcd,lcd_send_4bits@lcd
  2909   001F72  384B               	swapf	lcd_4bit_send_command@command^0,w,c
  2910   001F74  0B0F               	andlw	15
  2911   001F76  6E48               	movwf	lcd_send_4bits@_data_command^0,c
  2912   001F78  ECF9  F00F         	call	_lcd_send_4bits	;wreg free
  2913   001F7C  6E4C               	movwf	lcd_4bit_send_command@ret^0,c
  2914                           
  2915                           ;ECU_layer/LCD/ecu_lcd.c: 53:            lcd_4bits_sned_enable_signal(lcd);
  2916   001F7E  C04A  F047         	movff	lcd_4bit_send_command@lcd,lcd_4bits_sned_enable_signal@lcd
  2917   001F82  EC77  F011         	call	_lcd_4bits_sned_enable_signal	;wreg free
  2918                           
  2919                           ;ECU_layer/LCD/ecu_lcd.c: 54:            ret = lcd_send_4bits(lcd , command);
  2920   001F86  C04A  F047         	movff	lcd_4bit_send_command@lcd,lcd_send_4bits@lcd
  2921   001F8A  C04B  F048         	movff	lcd_4bit_send_command@command,lcd_send_4bits@_data_command
  2922   001F8E  ECF9  F00F         	call	_lcd_send_4bits	;wreg free
  2923   001F92  6E4C               	movwf	lcd_4bit_send_command@ret^0,c
  2924                           
  2925                           ;ECU_layer/LCD/ecu_lcd.c: 55:            lcd_4bits_sned_enable_signal(lcd);
  2926   001F94  C04A  F047         	movff	lcd_4bit_send_command@lcd,lcd_4bits_sned_enable_signal@lcd
  2927   001F98  EC77  F011         	call	_lcd_4bits_sned_enable_signal	;wreg free
  2928   001F9C                     l2368:
  2929                           
  2930                           ;ECU_layer/LCD/ecu_lcd.c: 57:      return ret;
  2931   001F9C  504C               	movf	lcd_4bit_send_command@ret^0,w,c
  2932   001F9E  0012               	return		;funcret
  2933   001FA0                     __end_of_lcd_4bit_send_command:
  2934                           	callstack 0
  2935                           
  2936 ;; *************** function _lcd_send_4bits *****************
  2937 ;; Defined at:
  2938 ;;		line 294 in file "ECU_layer/LCD/ecu_lcd.c"
  2939 ;; Parameters:    Size  Location     Type
  2940 ;;  lcd             1   10[COMRAM] PTR const struct .
  2941 ;;		 -> lcd_1(6), 
  2942 ;;  _data_comman    1   11[COMRAM] unsigned char 
  2943 ;; Auto vars:     Size  Location     Type
  2944 ;;  ret             1   12[COMRAM] unsigned char 
  2945 ;; Return value:  Size  Location     Type
  2946 ;;                  1    wreg      unsigned char 
  2947 ;; Registers used:
  2948 ;;		wreg, fsr2l, fsr2h, status,2, status,0, prodl, prodh, cstack
  2949 ;; Tracked objects:
  2950 ;;		On entry : 0/0
  2951 ;;		On exit  : 0/0
  2952 ;;		Unchanged: 0/0
  2953 ;; Data sizes:     COMRAM   BANK0   BANK1   BANK2   BANK3   BANK4   BANK5   BANK6   BANK7   BANK8   BANK9  BANK10  BANK1
      +1  BANK12  BANK13  BANK14  BANK15
  2954 ;;      Params:         2       0       0       0       0       0       0       0       0       0       0       0       
      +0       0       0       0       0
  2955 ;;      Locals:         1       0       0       0       0       0       0       0       0       0       0       0       
      +0       0       0       0       0
  2956 ;;      Temps:          0       0       0       0       0       0       0       0       0       0       0       0       
      +0       0       0       0       0
  2957 ;;      Totals:         3       0       0       0       0       0       0       0       0       0       0       0       
      +0       0       0       0       0
  2958 ;;Total ram usage:        3 bytes
  2959 ;; Hardware stack levels used: 1
  2960 ;; Hardware stack levels required when called: 4
  2961 ;; This function calls:
  2962 ;;		_gpio_pin_write_logic
  2963 ;; This function is called by:
  2964 ;;		_lcd_4bit_send_command
  2965 ;;		_lcd_4bit_send_char_data
  2966 ;; This function uses a non-reentrant model
  2967 ;;
  2968                           
  2969                           	psect	text15
  2970   001FF2                     __ptext15:
  2971                           	callstack 0
  2972   001FF2                     _lcd_send_4bits:
  2973                           	callstack 23
  2974   001FF2  5047               	movf	lcd_send_4bits@lcd^0,w,c
  2975   001FF4  0F02               	addlw	2
  2976   001FF6  6E3F               	movwf	gpio_pin_write_logic@_pin_config^0,c
  2977   001FF8  5048               	movf	lcd_send_4bits@_data_command^0,w,c
  2978   001FFA  0B01               	andlw	1
  2979   001FFC  6E40               	movwf	gpio_pin_write_logic@logic^0,c
  2980   001FFE  EC61  F00B         	call	_gpio_pin_write_logic	;wreg free
  2981   002002  5047               	movf	lcd_send_4bits@lcd^0,w,c
  2982   002004  0F03               	addlw	3
  2983   002006  6E3F               	movwf	gpio_pin_write_logic@_pin_config^0,c
  2984   002008  90D8               	bcf	status,0,c
  2985   00200A  3048               	rrcf	lcd_send_4bits@_data_command^0,w,c
  2986   00200C  0B01               	andlw	1
  2987   00200E  6E40               	movwf	gpio_pin_write_logic@logic^0,c
  2988   002010  EC61  F00B         	call	_gpio_pin_write_logic	;wreg free
  2989   002014  5047               	movf	lcd_send_4bits@lcd^0,w,c
  2990   002016  0F04               	addlw	4
  2991   002018  6E3F               	movwf	gpio_pin_write_logic@_pin_config^0,c
  2992   00201A  4048               	rrncf	lcd_send_4bits@_data_command^0,w,c
  2993   00201C  42E8               	rrncf	wreg,f,c
  2994   00201E  0B3F               	andlw	63
  2995   002020  0B01               	andlw	1
  2996   002022  6E40               	movwf	gpio_pin_write_logic@logic^0,c
  2997   002024  EC61  F00B         	call	_gpio_pin_write_logic	;wreg free
  2998   002028                     
  2999                           ;ECU_layer/LCD/ecu_lcd.c: 299:      ret = gpio_pin_write_logic(&(lcd->lcd_data[3]), (_da
      +                          ta_command >> 3)& (uint8)0x01);
  3000   002028  5047               	movf	lcd_send_4bits@lcd^0,w,c
  3001   00202A  0F05               	addlw	5
  3002   00202C  6E3F               	movwf	gpio_pin_write_logic@_pin_config^0,c
  3003   00202E  3848               	swapf	lcd_send_4bits@_data_command^0,w,c
  3004   002030  46E8               	rlncf	wreg,f,c
  3005   002032  0B1F               	andlw	31
  3006   002034  0B01               	andlw	1
  3007   002036  6E40               	movwf	gpio_pin_write_logic@logic^0,c
  3008   002038  EC61  F00B         	call	_gpio_pin_write_logic	;wreg free
  3009   00203C  6E49               	movwf	lcd_send_4bits@ret^0,c
  3010                           
  3011                           ;ECU_layer/LCD/ecu_lcd.c: 300:           return ret;
  3012   00203E  5049               	movf	lcd_send_4bits@ret^0,w,c
  3013   002040  0012               	return		;funcret
  3014   002042                     __end_of_lcd_send_4bits:
  3015                           	callstack 0
  3016                           
  3017 ;; *************** function _lcd_4bits_sned_enable_signal *****************
  3018 ;; Defined at:
  3019 ;;		line 304 in file "ECU_layer/LCD/ecu_lcd.c"
  3020 ;; Parameters:    Size  Location     Type
  3021 ;;  lcd             1   10[COMRAM] PTR const struct .
  3022 ;;		 -> lcd_1(6), 
  3023 ;; Auto vars:     Size  Location     Type
  3024 ;;  ret             1    0        unsigned char 
  3025 ;; Return value:  Size  Location     Type
  3026 ;;                  1    wreg      unsigned char 
  3027 ;; Registers used:
  3028 ;;		wreg, fsr2l, fsr2h, status,2, status,0, prodl, prodh, cstack
  3029 ;; Tracked objects:
  3030 ;;		On entry : 0/0
  3031 ;;		On exit  : 0/0
  3032 ;;		Unchanged: 0/0
  3033 ;; Data sizes:     COMRAM   BANK0   BANK1   BANK2   BANK3   BANK4   BANK5   BANK6   BANK7   BANK8   BANK9  BANK10  BANK1
      +1  BANK12  BANK13  BANK14  BANK15
  3034 ;;      Params:         1       0       0       0       0       0       0       0       0       0       0       0       
      +0       0       0       0       0
  3035 ;;      Locals:         0       0       0       0       0       0       0       0       0       0       0       0       
      +0       0       0       0       0
  3036 ;;      Temps:          0       0       0       0       0       0       0       0       0       0       0       0       
      +0       0       0       0       0
  3037 ;;      Totals:         1       0       0       0       0       0       0       0       0       0       0       0       
      +0       0       0       0       0
  3038 ;;Total ram usage:        1 bytes
  3039 ;; Hardware stack levels used: 1
  3040 ;; Hardware stack levels required when called: 4
  3041 ;; This function calls:
  3042 ;;		_gpio_pin_write_logic
  3043 ;; This function is called by:
  3044 ;;		_lcd_4bit_send_command
  3045 ;;		_lcd_4bit_send_char_data
  3046 ;; This function uses a non-reentrant model
  3047 ;;
  3048                           
  3049                           	psect	text16
  3050   0022EE                     __ptext16:
  3051                           	callstack 0
  3052   0022EE                     _lcd_4bits_sned_enable_signal:
  3053                           	callstack 23
  3054   0022EE  2847               	incf	lcd_4bits_sned_enable_signal@lcd^0,w,c
  3055   0022F0  6E3F               	movwf	gpio_pin_write_logic@_pin_config^0,c
  3056   0022F2  0E01               	movlw	1
  3057   0022F4  6E40               	movwf	gpio_pin_write_logic@logic^0,c
  3058   0022F6  EC61  F00B         	call	_gpio_pin_write_logic	;wreg free
  3059   0022FA                     
  3060                           ;ECU_layer/LCD/ecu_lcd.c: 307:      _delay((unsigned long)((5)*(8000000/4000000.0)));
  3061   0022FA  0E03               	movlw	3
  3062   0022FC                     u2337:
  3063   0022FC  2EE8               	decfsz	wreg,f,c
  3064   0022FE  D7FE               	bra	u2337
  3065   002300  0000               	nop	
  3066   002302  2847               	incf	lcd_4bits_sned_enable_signal@lcd^0,w,c
  3067   002304  6E3F               	movwf	gpio_pin_write_logic@_pin_config^0,c
  3068   002306  0E00               	movlw	0
  3069   002308  6E40               	movwf	gpio_pin_write_logic@logic^0,c
  3070   00230A  EC61  F00B         	call	_gpio_pin_write_logic	;wreg free
  3071   00230E  0012               	return		;funcret
  3072   002310                     __end_of_lcd_4bits_sned_enable_signal:
  3073                           	callstack 0
  3074                           
  3075 ;; *************** function _keypad_initialize *****************
  3076 ;; Defined at:
  3077 ;;		line 20 in file "ECU_layer/keypad/ecu_key_pad.c"
  3078 ;; Parameters:    Size  Location     Type
  3079 ;;  _keypad_obj     1   13[COMRAM] PTR const struct .
  3080 ;;		 -> key_pad(8), 
  3081 ;; Auto vars:     Size  Location     Type
  3082 ;;  columns_coun    1   16[COMRAM] unsigned char 
  3083 ;;  rows_counter    1   15[COMRAM] unsigned char 
  3084 ;;  ret             1   14[COMRAM] unsigned char 
  3085 ;; Return value:  Size  Location     Type
  3086 ;;                  1    wreg      unsigned char 
  3087 ;; Registers used:
  3088 ;;		wreg, fsr2l, fsr2h, status,2, status,0, prodl, prodh, cstack
  3089 ;; Tracked objects:
  3090 ;;		On entry : 0/0
  3091 ;;		On exit  : 0/0
  3092 ;;		Unchanged: 0/0
  3093 ;; Data sizes:     COMRAM   BANK0   BANK1   BANK2   BANK3   BANK4   BANK5   BANK6   BANK7   BANK8   BANK9  BANK10  BANK1
      +1  BANK12  BANK13  BANK14  BANK15
  3094 ;;      Params:         1       0       0       0       0       0       0       0       0       0       0       0       
      +0       0       0       0       0
  3095 ;;      Locals:         3       0       0       0       0       0       0       0       0       0       0       0       
      +0       0       0       0       0
  3096 ;;      Temps:          0       0       0       0       0       0       0       0       0       0       0       0       
      +0       0       0       0       0
  3097 ;;      Totals:         4       0       0       0       0       0       0       0       0       0       0       0       
      +0       0       0       0       0
  3098 ;;Total ram usage:        4 bytes
  3099 ;; Hardware stack levels used: 1
  3100 ;; Hardware stack levels required when called: 5
  3101 ;; This function calls:
  3102 ;;		_gpio_pin__initialize
  3103 ;;		_gpio_pin_direction_initialize
  3104 ;; This function is called by:
  3105 ;;		_application_initialize
  3106 ;; This function uses a non-reentrant model
  3107 ;;
  3108                           
  3109                           	psect	text17
  3110   001DD0                     __ptext17:
  3111                           	callstack 0
  3112   001DD0                     _keypad_initialize:
  3113                           	callstack 24
  3114   001DD0                     
  3115                           ;ECU_layer/keypad/ecu_key_pad.c: 22:     uint8 rows_counter = 0, columns_counter = 0;
  3116   001DD0  0E00               	movlw	0
  3117   001DD2  6E4C               	movwf	keypad_initialize@rows_counter^0,c
  3118   001DD4  0E00               	movlw	0
  3119   001DD6  6E4D               	movwf	keypad_initialize@columns_counter^0,c
  3120                           
  3121                           ;ECU_layer/keypad/ecu_key_pad.c: 23:        if(((void*)0)==_keypad_obj){
  3122   001DD8  504A               	movf	keypad_initialize@_keypad_obj^0,w,c
  3123   001DDA  A4D8               	btfss	status,2,c
  3124   001DDC  EFF2  F00E         	goto	u1411
  3125   001DE0  EFF4  F00E         	goto	u1410
  3126   001DE4                     u1411:
  3127   001DE4  EFF8  F00E         	goto	l2444
  3128   001DE8                     u1410:
  3129   001DE8                     
  3130                           ;ECU_layer/keypad/ecu_key_pad.c: 24:            ret = (std_returntype)0x00 ;
  3131   001DE8  0E00               	movlw	0
  3132   001DEA  6E4B               	movwf	keypad_initialize@ret^0,c
  3133                           
  3134                           ;ECU_layer/keypad/ecu_key_pad.c: 25:        }
  3135   001DEC  EF1A  F00F         	goto	l2468
  3136   001DF0                     l2444:
  3137                           
  3138                           ;ECU_layer/keypad/ecu_key_pad.c: 27:         {;ECU_layer/keypad/ecu_key_pad.c: 28:      
      +                                for(rows_counter = 0 ;rows_counter<4;rows_counter++){
  3139   001DF0  0E00               	movlw	0
  3140   001DF2  6E4C               	movwf	keypad_initialize@rows_counter^0,c
  3141   001DF4                     l2450:
  3142   001DF4  504A               	movf	keypad_initialize@_keypad_obj^0,w,c
  3143   001DF6  244C               	addwf	keypad_initialize@rows_counter^0,w,c
  3144   001DF8  6E47               	movwf	gpio_pin__initialize@_pin_config^0,c
  3145   001DFA  EC1C  F00F         	call	_gpio_pin__initialize	;wreg free
  3146   001DFE                     
  3147                           ;ECU_layer/keypad/ecu_key_pad.c: 30:            }
  3148   001DFE  2A4C               	incf	keypad_initialize@rows_counter^0,f,c
  3149   001E00  0E03               	movlw	3
  3150   001E02  644C               	cpfsgt	keypad_initialize@rows_counter^0,c
  3151   001E04  EF06  F00F         	goto	u1421
  3152   001E08  EF08  F00F         	goto	u1420
  3153   001E0C                     u1421:
  3154   001E0C  EFFA  F00E         	goto	l2450
  3155   001E10                     u1420:
  3156   001E10                     
  3157                           ;ECU_layer/keypad/ecu_key_pad.c: 31:             for(columns_counter = 0;columns_counter
      +                          <4;columns_counter++){
  3158   001E10  0E00               	movlw	0
  3159   001E12  6E4D               	movwf	keypad_initialize@columns_counter^0,c
  3160   001E14                     l2462:
  3161                           
  3162                           ;ECU_layer/keypad/ecu_key_pad.c: 32:                ret = gpio_pin_direction_initialize(
      +                          &(_keypad_obj->keypad_column_pins[columns_counter]));
  3163   001E14  504A               	movf	keypad_initialize@_keypad_obj^0,w,c
  3164   001E16  244D               	addwf	keypad_initialize@columns_counter^0,w,c
  3165   001E18  0F04               	addlw	4
  3166   001E1A  6E3F               	movwf	gpio_pin_direction_initialize@_pin_config^0,c
  3167   001E1C  ECCE  F00A         	call	_gpio_pin_direction_initialize	;wreg free
  3168   001E20  6E4B               	movwf	keypad_initialize@ret^0,c
  3169   001E22                     
  3170                           ;ECU_layer/keypad/ecu_key_pad.c: 33:            }
  3171   001E22  2A4D               	incf	keypad_initialize@columns_counter^0,f,c
  3172   001E24  0E03               	movlw	3
  3173   001E26  644D               	cpfsgt	keypad_initialize@columns_counter^0,c
  3174   001E28  EF18  F00F         	goto	u1431
  3175   001E2C  EF1A  F00F         	goto	u1430
  3176   001E30                     u1431:
  3177   001E30  EF0A  F00F         	goto	l2462
  3178   001E34                     u1430:
  3179   001E34                     l2468:
  3180                           
  3181                           ;ECU_layer/keypad/ecu_key_pad.c: 35:     return ret;
  3182   001E34  504B               	movf	keypad_initialize@ret^0,w,c
  3183   001E36  0012               	return		;funcret
  3184   001E38                     __end_of_keypad_initialize:
  3185                           	callstack 0
  3186                           
  3187 ;; *************** function _gpio_pin__initialize *****************
  3188 ;; Defined at:
  3189 ;;		line 231 in file "Mcal_layer/GPIO/hal_gpio.c"
  3190 ;; Parameters:    Size  Location     Type
  3191 ;;  _pin_config     1   10[COMRAM] PTR const struct .
  3192 ;;		 -> key_pad$keypad_row_pins(4), key_pad(8), seg_1$segment_pins(4), seg_1(5), 
  3193 ;;		 -> lcd_1$lcd_data(4), lcd_1(6), 
  3194 ;; Auto vars:     Size  Location     Type
  3195 ;;  ret             1   12[COMRAM] unsigned char 
  3196 ;; Return value:  Size  Location     Type
  3197 ;;                  1    wreg      unsigned char 
  3198 ;; Registers used:
  3199 ;;		wreg, fsr2l, fsr2h, status,2, status,0, prodl, prodh, cstack
  3200 ;; Tracked objects:
  3201 ;;		On entry : 0/0
  3202 ;;		On exit  : 0/0
  3203 ;;		Unchanged: 0/0
  3204 ;; Data sizes:     COMRAM   BANK0   BANK1   BANK2   BANK3   BANK4   BANK5   BANK6   BANK7   BANK8   BANK9  BANK10  BANK1
      +1  BANK12  BANK13  BANK14  BANK15
  3205 ;;      Params:         1       0       0       0       0       0       0       0       0       0       0       0       
      +0       0       0       0       0
  3206 ;;      Locals:         1       0       0       0       0       0       0       0       0       0       0       0       
      +0       0       0       0       0
  3207 ;;      Temps:          1       0       0       0       0       0       0       0       0       0       0       0       
      +0       0       0       0       0
  3208 ;;      Totals:         3       0       0       0       0       0       0       0       0       0       0       0       
      +0       0       0       0       0
  3209 ;;Total ram usage:        3 bytes
  3210 ;; Hardware stack levels used: 1
  3211 ;; Hardware stack levels required when called: 4
  3212 ;; This function calls:
  3213 ;;		_gpio_pin_direction_initialize
  3214 ;;		_gpio_pin_write_logic
  3215 ;; This function is called by:
  3216 ;;		_keypad_initialize
  3217 ;;		_lcd_4bit_initialize
  3218 ;;		_sev_seg_initialize
  3219 ;;		_lcd_8bit_initialize
  3220 ;; This function uses a non-reentrant model
  3221 ;;
  3222                           
  3223                           	psect	text18
  3224   001E38                     __ptext18:
  3225                           	callstack 0
  3226   001E38                     _gpio_pin__initialize:
  3227                           	callstack 24
  3228   001E38                     
  3229                           ;Mcal_layer/GPIO/hal_gpio.c: 233:     if((((void*)0) == _pin_config) || _pin_config->pin
      +                           > 8 -1){
  3230   001E38  5047               	movf	gpio_pin__initialize@_pin_config^0,w,c
  3231   001E3A  B4D8               	btfsc	status,2,c
  3232   001E3C  EF22  F00F         	goto	u1261
  3233   001E40  EF24  F00F         	goto	u1260
  3234   001E44                     u1261:
  3235   001E44  EF34  F00F         	goto	l2354
  3236   001E48                     u1260:
  3237   001E48  5047               	movf	gpio_pin__initialize@_pin_config^0,w,c
  3238   001E4A  6ED9               	movwf	fsr2l,c
  3239   001E4C  6ADA               	clrf	fsr2h,c
  3240   001E4E  30DF               	rrcf	223,w,c
  3241   001E50  32E8               	rrcf	wreg,f,c
  3242   001E52  32E8               	rrcf	wreg,f,c
  3243   001E54  0B07               	andlw	7
  3244   001E56  6E48               	movwf	??_gpio_pin__initialize^0,c
  3245   001E58  0E07               	movlw	7
  3246   001E5A  6448               	cpfsgt	??_gpio_pin__initialize^0,c
  3247   001E5C  EF32  F00F         	goto	u1271
  3248   001E60  EF34  F00F         	goto	u1270
  3249   001E64                     u1271:
  3250   001E64  EF38  F00F         	goto	l2356
  3251   001E68                     u1270:
  3252   001E68                     l2354:
  3253                           
  3254                           ;Mcal_layer/GPIO/hal_gpio.c: 234:         ret = (std_returntype)0x00;
  3255   001E68  0E00               	movlw	0
  3256   001E6A  6E49               	movwf	gpio_pin__initialize@ret^0,c
  3257                           
  3258                           ;Mcal_layer/GPIO/hal_gpio.c: 235:     }
  3259   001E6C  EF49  F00F         	goto	l2358
  3260   001E70                     l2356:
  3261                           
  3262                           ;Mcal_layer/GPIO/hal_gpio.c: 237:         ret = gpio_pin_direction_initialize(_pin_confi
      +                          g);
  3263   001E70  C047  F03F         	movff	gpio_pin__initialize@_pin_config,gpio_pin_direction_initialize@_pin_config
  3264   001E74  ECCE  F00A         	call	_gpio_pin_direction_initialize	;wreg free
  3265   001E78  6E49               	movwf	gpio_pin__initialize@ret^0,c
  3266                           
  3267                           ;Mcal_layer/GPIO/hal_gpio.c: 238:         ret = gpio_pin_write_logic(_pin_config,_pin_co
      +                          nfig->logic);
  3268   001E7A  C047  F03F         	movff	gpio_pin__initialize@_pin_config,gpio_pin_write_logic@_pin_config
  3269   001E7E  5047               	movf	gpio_pin__initialize@_pin_config^0,w,c
  3270   001E80  6ED9               	movwf	fsr2l,c
  3271   001E82  6ADA               	clrf	fsr2h,c
  3272   001E84  0E00               	movlw	0
  3273   001E86  BCDF               	btfsc	indf2,6,c
  3274   001E88  0E01               	movlw	1
  3275   001E8A  6E40               	movwf	gpio_pin_write_logic@logic^0,c
  3276   001E8C  EC61  F00B         	call	_gpio_pin_write_logic	;wreg free
  3277   001E90  6E49               	movwf	gpio_pin__initialize@ret^0,c
  3278   001E92                     l2358:
  3279                           
  3280                           ;Mcal_layer/GPIO/hal_gpio.c: 240:     return ret;
  3281   001E92  5049               	movf	gpio_pin__initialize@ret^0,w,c
  3282   001E94  0012               	return		;funcret
  3283   001E96                     __end_of_gpio_pin__initialize:
  3284                           	callstack 0
  3285                           
  3286 ;; *************** function _gpio_pin_write_logic *****************
  3287 ;; Defined at:
  3288 ;;		line 63 in file "Mcal_layer/GPIO/hal_gpio.c"
  3289 ;; Parameters:    Size  Location     Type
  3290 ;;  _pin_config     1    2[COMRAM] PTR const struct .
  3291 ;;		 -> key_pad$keypad_row_pins(4), key_pad(8), seg_1$segment_pins(4), seg_1(5), 
  3292 ;;		 -> lcd_1$lcd_data(4), lcd_1(6), 
  3293 ;;  logic           1    3[COMRAM] enum E2978
  3294 ;; Auto vars:     Size  Location     Type
  3295 ;;  ret             1    9[COMRAM] unsigned char 
  3296 ;; Return value:  Size  Location     Type
  3297 ;;                  1    wreg      unsigned char 
  3298 ;; Registers used:
  3299 ;;		wreg, fsr2l, fsr2h, status,2, status,0, prodl, prodh
  3300 ;; Tracked objects:
  3301 ;;		On entry : 0/0
  3302 ;;		On exit  : 0/0
  3303 ;;		Unchanged: 0/0
  3304 ;; Data sizes:     COMRAM   BANK0   BANK1   BANK2   BANK3   BANK4   BANK5   BANK6   BANK7   BANK8   BANK9  BANK10  BANK1
      +1  BANK12  BANK13  BANK14  BANK15
  3305 ;;      Params:         2       0       0       0       0       0       0       0       0       0       0       0       
      +0       0       0       0       0
  3306 ;;      Locals:         1       0       0       0       0       0       0       0       0       0       0       0       
      +0       0       0       0       0
  3307 ;;      Temps:          5       0       0       0       0       0       0       0       0       0       0       0       
      +0       0       0       0       0
  3308 ;;      Totals:         8       0       0       0       0       0       0       0       0       0       0       0       
      +0       0       0       0       0
  3309 ;;Total ram usage:        8 bytes
  3310 ;; Hardware stack levels used: 1
  3311 ;; Hardware stack levels required when called: 3
  3312 ;; This function calls:
  3313 ;;		Nothing
  3314 ;; This function is called by:
  3315 ;;		_keypad_get_value
  3316 ;;		_lcd_4bit_send_command
  3317 ;;		_lcd_4bit_send_char_data
  3318 ;;		_lcd_8bit_send_command
  3319 ;;		_lcd_send_4bits
  3320 ;;		_lcd_4bits_sned_enable_signal
  3321 ;;		_lcd_8bits_sned_enable_signal
  3322 ;;		_gpio_pin__initialize
  3323 ;;		_lcd_8bit_send_char_data
  3324 ;;		_sev_seg_write_number
  3325 ;; This function uses a non-reentrant model
  3326 ;;
  3327                           
  3328                           	psect	text19
  3329   0016C2                     __ptext19:
  3330                           	callstack 0
  3331   0016C2                     _gpio_pin_write_logic:
  3332                           	callstack 23
  3333   0016C2                     
  3334                           ;Mcal_layer/GPIO/hal_gpio.c: 64:     std_returntype ret = (std_returntype)0x01;
  3335   0016C2  0E01               	movlw	1
  3336   0016C4  6E46               	movwf	gpio_pin_write_logic@ret^0,c
  3337                           
  3338                           ;Mcal_layer/GPIO/hal_gpio.c: 65:     if((((void*)0)==_pin_config) ||(_pin_config->pin > 
      +                          8 -1))
  3339   0016C6  503F               	movf	gpio_pin_write_logic@_pin_config^0,w,c
  3340   0016C8  B4D8               	btfsc	status,2,c
  3341   0016CA  EF69  F00B         	goto	u1161
  3342   0016CE  EF6B  F00B         	goto	u1160
  3343   0016D2                     u1161:
  3344   0016D2  EF7B  F00B         	goto	l2276
  3345   0016D6                     u1160:
  3346   0016D6  503F               	movf	gpio_pin_write_logic@_pin_config^0,w,c
  3347   0016D8  6ED9               	movwf	fsr2l,c
  3348   0016DA  6ADA               	clrf	fsr2h,c
  3349   0016DC  30DF               	rrcf	223,w,c
  3350   0016DE  32E8               	rrcf	wreg,f,c
  3351   0016E0  32E8               	rrcf	wreg,f,c
  3352   0016E2  0B07               	andlw	7
  3353   0016E4  6E41               	movwf	??_gpio_pin_write_logic^0,c
  3354   0016E6  0E07               	movlw	7
  3355   0016E8  6441               	cpfsgt	??_gpio_pin_write_logic^0,c
  3356   0016EA  EF79  F00B         	goto	u1171
  3357   0016EE  EF7B  F00B         	goto	u1170
  3358   0016F2                     u1171:
  3359   0016F2  EFD2  F00B         	goto	l2284
  3360   0016F6                     u1170:
  3361   0016F6                     l2276:
  3362                           
  3363                           ;Mcal_layer/GPIO/hal_gpio.c: 66:     {;Mcal_layer/GPIO/hal_gpio.c: 67:         ret = (st
      +                          d_returntype)0x00 ;
  3364   0016F6  0E00               	movlw	0
  3365   0016F8  6E46               	movwf	gpio_pin_write_logic@ret^0,c
  3366                           
  3367                           ;Mcal_layer/GPIO/hal_gpio.c: 68:     }
  3368   0016FA  EFE7  F00B         	goto	l2286
  3369   0016FE                     l2278:
  3370                           
  3371                           ;Mcal_layer/GPIO/hal_gpio.c: 72:                 (*lat_reg[_pin_config->port]&=~((uint8)
      +                          1<<_pin_config->pin));
  3372   0016FE  503F               	movf	gpio_pin_write_logic@_pin_config^0,w,c
  3373   001700  6ED9               	movwf	fsr2l,c
  3374   001702  6ADA               	clrf	fsr2h,c
  3375   001704  30DF               	rrcf	223,w,c
  3376   001706  32E8               	rrcf	wreg,f,c
  3377   001708  32E8               	rrcf	wreg,f,c
  3378   00170A  0B07               	andlw	7
  3379   00170C  6E41               	movwf	??_gpio_pin_write_logic^0,c
  3380   00170E  0E01               	movlw	1
  3381   001710  6E42               	movwf	(??_gpio_pin_write_logic+1)^0,c
  3382   001712  2A41               	incf	??_gpio_pin_write_logic^0,f,c
  3383   001714  EF8E  F00B         	goto	u1184
  3384   001718                     u1185:
  3385   001718  90D8               	bcf	status,0,c
  3386   00171A  3642               	rlcf	(??_gpio_pin_write_logic+1)^0,f,c
  3387   00171C                     u1184:
  3388   00171C  2E41               	decfsz	??_gpio_pin_write_logic^0,f,c
  3389   00171E  EF8C  F00B         	goto	u1185
  3390   001722  5042               	movf	(??_gpio_pin_write_logic+1)^0,w,c
  3391   001724  0AFF               	xorlw	255
  3392   001726  6E43               	movwf	(??_gpio_pin_write_logic+2)^0,c
  3393   001728  503F               	movf	gpio_pin_write_logic@_pin_config^0,w,c
  3394   00172A  6ED9               	movwf	fsr2l,c
  3395   00172C  6ADA               	clrf	fsr2h,c
  3396   00172E  50DF               	movf	223,w,c
  3397   001730  0B07               	andlw	7
  3398   001732  0D02               	mullw	2
  3399   001734  50F3               	movf	243,w,c
  3400   001736  0F0B               	addlw	low _lat_reg
  3401   001738  6ED9               	movwf	fsr2l,c
  3402   00173A  6ADA               	clrf	fsr2h,c
  3403   00173C  CFDE F044          	movff	postinc2,??_gpio_pin_write_logic+3
  3404   001740  CFDD F045          	movff	postdec2,??_gpio_pin_write_logic+4
  3405   001744  C044  FFD9         	movff	??_gpio_pin_write_logic+3,fsr2l
  3406   001748  C045  FFDA         	movff	??_gpio_pin_write_logic+4,fsr2h
  3407   00174C  5043               	movf	(??_gpio_pin_write_logic+2)^0,w,c
  3408   00174E  16DF               	andwf	indf2,f,c
  3409                           
  3410                           ;Mcal_layer/GPIO/hal_gpio.c: 73:                 break;
  3411   001750  EFE7  F00B         	goto	l2286
  3412   001754                     l2280:
  3413                           
  3414                           ;Mcal_layer/GPIO/hal_gpio.c: 75:                 (*lat_reg[_pin_config->port]|=((uint8)1
      +                          <<_pin_config->pin));
  3415   001754  503F               	movf	gpio_pin_write_logic@_pin_config^0,w,c
  3416   001756  6ED9               	movwf	fsr2l,c
  3417   001758  6ADA               	clrf	fsr2h,c
  3418   00175A  30DF               	rrcf	223,w,c
  3419   00175C  32E8               	rrcf	wreg,f,c
  3420   00175E  32E8               	rrcf	wreg,f,c
  3421   001760  0B07               	andlw	7
  3422   001762  6E41               	movwf	??_gpio_pin_write_logic^0,c
  3423   001764  0E01               	movlw	1
  3424   001766  6E42               	movwf	(??_gpio_pin_write_logic+1)^0,c
  3425   001768  2A41               	incf	??_gpio_pin_write_logic^0,f,c
  3426   00176A  EFB9  F00B         	goto	u1194
  3427   00176E                     u1195:
  3428   00176E  90D8               	bcf	status,0,c
  3429   001770  3642               	rlcf	(??_gpio_pin_write_logic+1)^0,f,c
  3430   001772                     u1194:
  3431   001772  2E41               	decfsz	??_gpio_pin_write_logic^0,f,c
  3432   001774  EFB7  F00B         	goto	u1195
  3433   001778  503F               	movf	gpio_pin_write_logic@_pin_config^0,w,c
  3434   00177A  6ED9               	movwf	fsr2l,c
  3435   00177C  6ADA               	clrf	fsr2h,c
  3436   00177E  50DF               	movf	223,w,c
  3437   001780  0B07               	andlw	7
  3438   001782  0D02               	mullw	2
  3439   001784  50F3               	movf	243,w,c
  3440   001786  0F0B               	addlw	low _lat_reg
  3441   001788  6ED9               	movwf	fsr2l,c
  3442   00178A  6ADA               	clrf	fsr2h,c
  3443   00178C  CFDE F043          	movff	postinc2,??_gpio_pin_write_logic+2
  3444   001790  CFDD F044          	movff	postdec2,??_gpio_pin_write_logic+3
  3445   001794  C043  FFD9         	movff	??_gpio_pin_write_logic+2,fsr2l
  3446   001798  C044  FFDA         	movff	??_gpio_pin_write_logic+3,fsr2h
  3447   00179C  5042               	movf	(??_gpio_pin_write_logic+1)^0,w,c
  3448   00179E  12DF               	iorwf	indf2,f,c
  3449                           
  3450                           ;Mcal_layer/GPIO/hal_gpio.c: 76:                 break;
  3451   0017A0  EFE7  F00B         	goto	l2286
  3452   0017A4                     l2284:
  3453   0017A4  5040               	movf	gpio_pin_write_logic@logic^0,w,c
  3454   0017A6  6E41               	movwf	??_gpio_pin_write_logic^0,c
  3455   0017A8  6A42               	clrf	(??_gpio_pin_write_logic+1)^0,c
  3456                           
  3457                           ; Switch on 2 bytes has been partitioned into a top level switch of size 1, and 1 sub-sw
      +                          itches
  3458                           ; Switch size 1, requested type "simple"
  3459                           ; Number of cases is 1, Range of values is 0 to 0
  3460                           ; switch strategies available:
  3461                           ; Name         Instructions Cycles
  3462                           ; simple_byte            4     3 (average)
  3463                           ;	Chosen strategy is simple_byte
  3464   0017AA  5042               	movf	(??_gpio_pin_write_logic+1)^0,w,c
  3465   0017AC  0A00               	xorlw	0	; case 0
  3466   0017AE  B4D8               	btfsc	status,2,c
  3467   0017B0  EFDC  F00B         	goto	l3200
  3468   0017B4  EF7B  F00B         	goto	l2276
  3469   0017B8                     l3200:
  3470                           
  3471                           ; Switch size 1, requested type "simple"
  3472                           ; Number of cases is 2, Range of values is 0 to 1
  3473                           ; switch strategies available:
  3474                           ; Name         Instructions Cycles
  3475                           ; simple_byte            7     4 (average)
  3476                           ;	Chosen strategy is simple_byte
  3477   0017B8  5041               	movf	??_gpio_pin_write_logic^0,w,c
  3478   0017BA  0A00               	xorlw	0	; case 0
  3479   0017BC  B4D8               	btfsc	status,2,c
  3480   0017BE  EF7F  F00B         	goto	l2278
  3481   0017C2  0A01               	xorlw	1	; case 1
  3482   0017C4  B4D8               	btfsc	status,2,c
  3483   0017C6  EFAA  F00B         	goto	l2280
  3484   0017CA  EF7B  F00B         	goto	l2276
  3485   0017CE                     l2286:
  3486                           
  3487                           ;Mcal_layer/GPIO/hal_gpio.c: 81:     return ret;
  3488   0017CE  5046               	movf	gpio_pin_write_logic@ret^0,w,c
  3489   0017D0  0012               	return		;funcret
  3490   0017D2                     __end_of_gpio_pin_write_logic:
  3491                           	callstack 0
  3492                           
  3493 ;; *************** function _gpio_pin_direction_initialize *****************
  3494 ;; Defined at:
  3495 ;;		line 15 in file "Mcal_layer/GPIO/hal_gpio.c"
  3496 ;; Parameters:    Size  Location     Type
  3497 ;;  _pin_config     1    2[COMRAM] PTR const struct .
  3498 ;;		 -> key_pad$keypad_column_pins(4), key_pad$keypad_row_pins(4), key_pad(8), seg_1$segment_pins(4), 
  3499 ;;		 -> seg_1(5), lcd_1$lcd_data(4), lcd_1(6), 
  3500 ;; Auto vars:     Size  Location     Type
  3501 ;;  ret             1    8[COMRAM] unsigned char 
  3502 ;; Return value:  Size  Location     Type
  3503 ;;                  1    wreg      unsigned char 
  3504 ;; Registers used:
  3505 ;;		wreg, fsr2l, fsr2h, status,2, status,0, prodl, prodh
  3506 ;; Tracked objects:
  3507 ;;		On entry : 0/0
  3508 ;;		On exit  : 0/0
  3509 ;;		Unchanged: 0/0
  3510 ;; Data sizes:     COMRAM   BANK0   BANK1   BANK2   BANK3   BANK4   BANK5   BANK6   BANK7   BANK8   BANK9  BANK10  BANK1
      +1  BANK12  BANK13  BANK14  BANK15
  3511 ;;      Params:         1       0       0       0       0       0       0       0       0       0       0       0       
      +0       0       0       0       0
  3512 ;;      Locals:         1       0       0       0       0       0       0       0       0       0       0       0       
      +0       0       0       0       0
  3513 ;;      Temps:          5       0       0       0       0       0       0       0       0       0       0       0       
      +0       0       0       0       0
  3514 ;;      Totals:         7       0       0       0       0       0       0       0       0       0       0       0       
      +0       0       0       0       0
  3515 ;;Total ram usage:        7 bytes
  3516 ;; Hardware stack levels used: 1
  3517 ;; Hardware stack levels required when called: 3
  3518 ;; This function calls:
  3519 ;;		Nothing
  3520 ;; This function is called by:
  3521 ;;		_keypad_initialize
  3522 ;;		_gpio_pin__initialize
  3523 ;; This function uses a non-reentrant model
  3524 ;;
  3525                           
  3526                           	psect	text20
  3527   00159C                     __ptext20:
  3528                           	callstack 0
  3529   00159C                     _gpio_pin_direction_initialize:
  3530                           	callstack 24
  3531   00159C                     
  3532                           ;Mcal_layer/GPIO/hal_gpio.c: 16:     std_returntype ret = (std_returntype)0x01;
  3533   00159C  0E01               	movlw	1
  3534   00159E  6E45               	movwf	gpio_pin_direction_initialize@ret^0,c
  3535                           
  3536                           ;Mcal_layer/GPIO/hal_gpio.c: 17:     if(((void*)0) == _pin_config || _pin_config->pin > 
      +                          8 -1){
  3537   0015A0  503F               	movf	gpio_pin_direction_initialize@_pin_config^0,w,c
  3538   0015A2  B4D8               	btfsc	status,2,c
  3539   0015A4  EFD6  F00A         	goto	u1201
  3540   0015A8  EFD8  F00A         	goto	u1200
  3541   0015AC                     u1201:
  3542   0015AC  EFE8  F00A         	goto	l2298
  3543   0015B0                     u1200:
  3544   0015B0  503F               	movf	gpio_pin_direction_initialize@_pin_config^0,w,c
  3545   0015B2  6ED9               	movwf	fsr2l,c
  3546   0015B4  6ADA               	clrf	fsr2h,c
  3547   0015B6  30DF               	rrcf	223,w,c
  3548   0015B8  32E8               	rrcf	wreg,f,c
  3549   0015BA  32E8               	rrcf	wreg,f,c
  3550   0015BC  0B07               	andlw	7
  3551   0015BE  6E40               	movwf	??_gpio_pin_direction_initialize^0,c
  3552   0015C0  0E07               	movlw	7
  3553   0015C2  6440               	cpfsgt	??_gpio_pin_direction_initialize^0,c
  3554   0015C4  EFE6  F00A         	goto	u1211
  3555   0015C8  EFE8  F00A         	goto	u1210
  3556   0015CC                     u1211:
  3557   0015CC  EF3F  F00B         	goto	l2306
  3558   0015D0                     u1210:
  3559   0015D0                     l2298:
  3560                           
  3561                           ;Mcal_layer/GPIO/hal_gpio.c: 18:         ret = (std_returntype)0x00;
  3562   0015D0  0E00               	movlw	0
  3563   0015D2  6E45               	movwf	gpio_pin_direction_initialize@ret^0,c
  3564                           
  3565                           ;Mcal_layer/GPIO/hal_gpio.c: 19:     }
  3566   0015D4  EF5F  F00B         	goto	l2308
  3567   0015D8                     l2300:
  3568                           
  3569                           ;Mcal_layer/GPIO/hal_gpio.c: 23:                 (*tris_reg[_pin_config->port]&=~((uint8
      +                          )1<<_pin_config->pin));
  3570   0015D8  503F               	movf	gpio_pin_direction_initialize@_pin_config^0,w,c
  3571   0015DA  6ED9               	movwf	fsr2l,c
  3572   0015DC  6ADA               	clrf	fsr2h,c
  3573   0015DE  30DF               	rrcf	223,w,c
  3574   0015E0  32E8               	rrcf	wreg,f,c
  3575   0015E2  32E8               	rrcf	wreg,f,c
  3576   0015E4  0B07               	andlw	7
  3577   0015E6  6E40               	movwf	??_gpio_pin_direction_initialize^0,c
  3578   0015E8  0E01               	movlw	1
  3579   0015EA  6E41               	movwf	(??_gpio_pin_direction_initialize+1)^0,c
  3580   0015EC  2A40               	incf	??_gpio_pin_direction_initialize^0,f,c
  3581   0015EE  EFFB  F00A         	goto	u1224
  3582   0015F2                     u1225:
  3583   0015F2  90D8               	bcf	status,0,c
  3584   0015F4  3641               	rlcf	(??_gpio_pin_direction_initialize+1)^0,f,c
  3585   0015F6                     u1224:
  3586   0015F6  2E40               	decfsz	??_gpio_pin_direction_initialize^0,f,c
  3587   0015F8  EFF9  F00A         	goto	u1225
  3588   0015FC  5041               	movf	(??_gpio_pin_direction_initialize+1)^0,w,c
  3589   0015FE  0AFF               	xorlw	255
  3590   001600  6E42               	movwf	(??_gpio_pin_direction_initialize+2)^0,c
  3591   001602  503F               	movf	gpio_pin_direction_initialize@_pin_config^0,w,c
  3592   001604  6ED9               	movwf	fsr2l,c
  3593   001606  6ADA               	clrf	fsr2h,c
  3594   001608  50DF               	movf	223,w,c
  3595   00160A  0B07               	andlw	7
  3596   00160C  0D02               	mullw	2
  3597   00160E  50F3               	movf	243,w,c
  3598   001610  0F15               	addlw	low _tris_reg
  3599   001612  6ED9               	movwf	fsr2l,c
  3600   001614  6ADA               	clrf	fsr2h,c
  3601   001616  CFDE F043          	movff	postinc2,??_gpio_pin_direction_initialize+3
  3602   00161A  CFDD F044          	movff	postdec2,??_gpio_pin_direction_initialize+4
  3603   00161E  C043  FFD9         	movff	??_gpio_pin_direction_initialize+3,fsr2l
  3604   001622  C044  FFDA         	movff	??_gpio_pin_direction_initialize+4,fsr2h
  3605   001626  5042               	movf	(??_gpio_pin_direction_initialize+2)^0,w,c
  3606   001628  16DF               	andwf	indf2,f,c
  3607                           
  3608                           ;Mcal_layer/GPIO/hal_gpio.c: 24:                 break;
  3609   00162A  EF5F  F00B         	goto	l2308
  3610   00162E                     l2302:
  3611                           
  3612                           ;Mcal_layer/GPIO/hal_gpio.c: 27:                 (*tris_reg[_pin_config->port]|=((uint8)
      +                          1<<_pin_config->pin));
  3613   00162E  503F               	movf	gpio_pin_direction_initialize@_pin_config^0,w,c
  3614   001630  6ED9               	movwf	fsr2l,c
  3615   001632  6ADA               	clrf	fsr2h,c
  3616   001634  30DF               	rrcf	223,w,c
  3617   001636  32E8               	rrcf	wreg,f,c
  3618   001638  32E8               	rrcf	wreg,f,c
  3619   00163A  0B07               	andlw	7
  3620   00163C  6E40               	movwf	??_gpio_pin_direction_initialize^0,c
  3621   00163E  0E01               	movlw	1
  3622   001640  6E41               	movwf	(??_gpio_pin_direction_initialize+1)^0,c
  3623   001642  2A40               	incf	??_gpio_pin_direction_initialize^0,f,c
  3624   001644  EF26  F00B         	goto	u1234
  3625   001648                     u1235:
  3626   001648  90D8               	bcf	status,0,c
  3627   00164A  3641               	rlcf	(??_gpio_pin_direction_initialize+1)^0,f,c
  3628   00164C                     u1234:
  3629   00164C  2E40               	decfsz	??_gpio_pin_direction_initialize^0,f,c
  3630   00164E  EF24  F00B         	goto	u1235
  3631   001652  503F               	movf	gpio_pin_direction_initialize@_pin_config^0,w,c
  3632   001654  6ED9               	movwf	fsr2l,c
  3633   001656  6ADA               	clrf	fsr2h,c
  3634   001658  50DF               	movf	223,w,c
  3635   00165A  0B07               	andlw	7
  3636   00165C  0D02               	mullw	2
  3637   00165E  50F3               	movf	243,w,c
  3638   001660  0F15               	addlw	low _tris_reg
  3639   001662  6ED9               	movwf	fsr2l,c
  3640   001664  6ADA               	clrf	fsr2h,c
  3641   001666  CFDE F042          	movff	postinc2,??_gpio_pin_direction_initialize+2
  3642   00166A  CFDD F043          	movff	postdec2,??_gpio_pin_direction_initialize+3
  3643   00166E  C042  FFD9         	movff	??_gpio_pin_direction_initialize+2,fsr2l
  3644   001672  C043  FFDA         	movff	??_gpio_pin_direction_initialize+3,fsr2h
  3645   001676  5041               	movf	(??_gpio_pin_direction_initialize+1)^0,w,c
  3646   001678  12DF               	iorwf	indf2,f,c
  3647                           
  3648                           ;Mcal_layer/GPIO/hal_gpio.c: 28:                 break;
  3649   00167A  EF5F  F00B         	goto	l2308
  3650   00167E                     l2306:
  3651   00167E  503F               	movf	gpio_pin_direction_initialize@_pin_config^0,w,c
  3652   001680  6ED9               	movwf	fsr2l,c
  3653   001682  6ADA               	clrf	fsr2h,c
  3654   001684  BEDF               	btfsc	indf2,7,c
  3655   001686  EF47  F00B         	goto	u1241
  3656   00168A  EF4A  F00B         	goto	u1240
  3657   00168E                     u1241:
  3658   00168E  0E01               	movlw	1
  3659   001690  EF4B  F00B         	goto	u1250
  3660   001694                     u1240:
  3661   001694  0E00               	movlw	0
  3662   001696                     u1250:
  3663   001696  6E40               	movwf	??_gpio_pin_direction_initialize^0,c
  3664   001698  6A41               	clrf	(??_gpio_pin_direction_initialize+1)^0,c
  3665                           
  3666                           ; Switch on 2 bytes has been partitioned into a top level switch of size 1, and 1 sub-sw
      +                          itches
  3667                           ; Switch size 1, requested type "simple"
  3668                           ; Number of cases is 1, Range of values is 0 to 0
  3669                           ; switch strategies available:
  3670                           ; Name         Instructions Cycles
  3671                           ; simple_byte            4     3 (average)
  3672                           ;	Chosen strategy is simple_byte
  3673   00169A  5041               	movf	(??_gpio_pin_direction_initialize+1)^0,w,c
  3674   00169C  0A00               	xorlw	0	; case 0
  3675   00169E  B4D8               	btfsc	status,2,c
  3676   0016A0  EF54  F00B         	goto	l3202
  3677   0016A4  EFE8  F00A         	goto	l2298
  3678   0016A8                     l3202:
  3679                           
  3680                           ; Switch size 1, requested type "simple"
  3681                           ; Number of cases is 2, Range of values is 0 to 1
  3682                           ; switch strategies available:
  3683                           ; Name         Instructions Cycles
  3684                           ; simple_byte            7     4 (average)
  3685                           ;	Chosen strategy is simple_byte
  3686   0016A8  5040               	movf	??_gpio_pin_direction_initialize^0,w,c
  3687   0016AA  0A00               	xorlw	0	; case 0
  3688   0016AC  B4D8               	btfsc	status,2,c
  3689   0016AE  EFEC  F00A         	goto	l2300
  3690   0016B2  0A01               	xorlw	1	; case 1
  3691   0016B4  B4D8               	btfsc	status,2,c
  3692   0016B6  EF17  F00B         	goto	l2302
  3693   0016BA  EFE8  F00A         	goto	l2298
  3694   0016BE                     l2308:
  3695                           
  3696                           ;Mcal_layer/GPIO/hal_gpio.c: 35:     return ret;
  3697   0016BE  5045               	movf	gpio_pin_direction_initialize@ret^0,w,c
  3698   0016C0  0012               	return		;funcret
  3699   0016C2                     __end_of_gpio_pin_direction_initialize:
  3700                           	callstack 0
  3701                           
  3702 ;; *************** function _gpio_port_direction_initialize *****************
  3703 ;; Defined at:
  3704 ;;		line 129 in file "Mcal_layer/GPIO/hal_gpio.c"
  3705 ;; Parameters:    Size  Location     Type
  3706 ;;  port            1    wreg     enum E2996
  3707 ;;  direction       1    2[COMRAM] unsigned char 
  3708 ;; Auto vars:     Size  Location     Type
  3709 ;;  port            1    6[COMRAM] enum E2996
  3710 ;;  ret             1    5[COMRAM] unsigned char 
  3711 ;; Return value:  Size  Location     Type
  3712 ;;                  1    wreg      unsigned char 
  3713 ;; Registers used:
  3714 ;;		wreg, fsr2l, fsr2h, status,2, status,0, prodl, prodh
  3715 ;; Tracked objects:
  3716 ;;		On entry : 0/0
  3717 ;;		On exit  : 0/0
  3718 ;;		Unchanged: 0/0
  3719 ;; Data sizes:     COMRAM   BANK0   BANK1   BANK2   BANK3   BANK4   BANK5   BANK6   BANK7   BANK8   BANK9  BANK10  BANK1
      +1  BANK12  BANK13  BANK14  BANK15
  3720 ;;      Params:         1       0       0       0       0       0       0       0       0       0       0       0       
      +0       0       0       0       0
  3721 ;;      Locals:         2       0       0       0       0       0       0       0       0       0       0       0       
      +0       0       0       0       0
  3722 ;;      Temps:          2       0       0       0       0       0       0       0       0       0       0       0       
      +0       0       0       0       0
  3723 ;;      Totals:         5       0       0       0       0       0       0       0       0       0       0       0       
      +0       0       0       0       0
  3724 ;;Total ram usage:        5 bytes
  3725 ;; Hardware stack levels used: 1
  3726 ;; Hardware stack levels required when called: 3
  3727 ;; This function calls:
  3728 ;;		Nothing
  3729 ;; This function is called by:
  3730 ;;		_application_initialize
  3731 ;; This function uses a non-reentrant model
  3732 ;;
  3733                           
  3734                           	psect	text21
  3735   0020CC                     __ptext21:
  3736                           	callstack 0
  3737   0020CC                     _gpio_port_direction_initialize:
  3738                           	callstack 26
  3739                           
  3740                           ;incstack = 0
  3741                           ;gpio_port_direction_initialize@port stored from wreg
  3742   0020CC  6E43               	movwf	gpio_port_direction_initialize@port^0,c
  3743   0020CE                     
  3744                           ;Mcal_layer/GPIO/hal_gpio.c: 130:     std_returntype ret = (std_returntype)0x01;
  3745   0020CE  0E01               	movlw	1
  3746   0020D0  6E42               	movwf	gpio_port_direction_initialize@ret^0,c
  3747   0020D2                     
  3748                           ;Mcal_layer/GPIO/hal_gpio.c: 131:       if( port > 5 -1)
  3749   0020D2  0E04               	movlw	4
  3750   0020D4  6443               	cpfsgt	gpio_port_direction_initialize@port^0,c
  3751   0020D6  EF6F  F010         	goto	u1561
  3752   0020DA  EF71  F010         	goto	u1560
  3753   0020DE                     u1561:
  3754   0020DE  EF75  F010         	goto	l2608
  3755   0020E2                     u1560:
  3756   0020E2                     
  3757                           ;Mcal_layer/GPIO/hal_gpio.c: 132:     {;Mcal_layer/GPIO/hal_gpio.c: 133:         ret = (
      +                          std_returntype)0x00 ;
  3758   0020E2  0E00               	movlw	0
  3759   0020E4  6E42               	movwf	gpio_port_direction_initialize@ret^0,c
  3760                           
  3761                           ;Mcal_layer/GPIO/hal_gpio.c: 134:     }
  3762   0020E6  EF85  F010         	goto	l2610
  3763   0020EA                     l2608:
  3764                           
  3765                           ;Mcal_layer/GPIO/hal_gpio.c: 136:            *tris_reg[port] = direction ;
  3766   0020EA  5043               	movf	gpio_port_direction_initialize@port^0,w,c
  3767   0020EC  0D02               	mullw	2
  3768   0020EE  50F3               	movf	243,w,c
  3769   0020F0  0F15               	addlw	low _tris_reg
  3770   0020F2  6ED9               	movwf	fsr2l,c
  3771   0020F4  6ADA               	clrf	fsr2h,c
  3772   0020F6  CFDE F040          	movff	postinc2,??_gpio_port_direction_initialize
  3773   0020FA  CFDD F041          	movff	postdec2,??_gpio_port_direction_initialize+1
  3774   0020FE  C040  FFD9         	movff	??_gpio_port_direction_initialize,fsr2l
  3775   002102  C041  FFDA         	movff	??_gpio_port_direction_initialize+1,fsr2h
  3776   002106  C03F  FFDF         	movff	gpio_port_direction_initialize@direction,indf2
  3777   00210A                     l2610:
  3778                           
  3779                           ;Mcal_layer/GPIO/hal_gpio.c: 140:     return ret;
  3780   00210A  5042               	movf	gpio_port_direction_initialize@ret^0,w,c
  3781   00210C  0012               	return		;funcret
  3782   00210E                     __end_of_gpio_port_direction_initialize:
  3783                           	callstack 0
  3784                           
  3785 ;; *************** function _Timer0_Init *****************
  3786 ;; Defined at:
  3787 ;;		line 18 in file "Mcal_layer/TIMER0/hal_timer0.c"
  3788 ;; Parameters:    Size  Location     Type
  3789 ;;  _timer          1    4[COMRAM] PTR const struct .
  3790 ;;		 -> timer_0(7), 
  3791 ;; Auto vars:     Size  Location     Type
  3792 ;;  ret             1    7[COMRAM] unsigned char 
  3793 ;; Return value:  Size  Location     Type
  3794 ;;                  1    wreg      unsigned char 
  3795 ;; Registers used:
  3796 ;;		wreg, fsr2l, fsr2h, status,2, status,0, cstack
  3797 ;; Tracked objects:
  3798 ;;		On entry : 0/0
  3799 ;;		On exit  : 0/0
  3800 ;;		Unchanged: 0/0
  3801 ;; Data sizes:     COMRAM   BANK0   BANK1   BANK2   BANK3   BANK4   BANK5   BANK6   BANK7   BANK8   BANK9  BANK10  BANK1
      +1  BANK12  BANK13  BANK14  BANK15
  3802 ;;      Params:         1       0       0       0       0       0       0       0       0       0       0       0       
      +0       0       0       0       0
  3803 ;;      Locals:         1       0       0       0       0       0       0       0       0       0       0       0       
      +0       0       0       0       0
  3804 ;;      Temps:          2       0       0       0       0       0       0       0       0       0       0       0       
      +0       0       0       0       0
  3805 ;;      Totals:         4       0       0       0       0       0       0       0       0       0       0       0       
      +0       0       0       0       0
  3806 ;;Total ram usage:        4 bytes
  3807 ;; Hardware stack levels used: 1
  3808 ;; Hardware stack levels required when called: 4
  3809 ;; This function calls:
  3810 ;;		_Timer0_Mode_Select
  3811 ;;		_Timer0_Prescaler_Config
  3812 ;;		_Timer0_Register_Size_Config
  3813 ;; This function is called by:
  3814 ;;		_application_initialize
  3815 ;; This function uses a non-reentrant model
  3816 ;;
  3817                           
  3818                           	psect	text22
  3819   001C56                     __ptext22:
  3820                           	callstack 0
  3821   001C56                     _Timer0_Init:
  3822                           	callstack 25
  3823   001C56                     
  3824                           ;Mcal_layer/TIMER0/hal_timer0.c: 20:      if((((void*)0) == _timer)){
  3825   001C56  5041               	movf	Timer0_Init@_timer^0,w,c
  3826   001C58  A4D8               	btfss	status,2,c
  3827   001C5A  EF31  F00E         	goto	u1571
  3828   001C5E  EF33  F00E         	goto	u1570
  3829   001C62                     u1571:
  3830   001C62  EF37  F00E         	goto	l369
  3831   001C66                     u1570:
  3832   001C66                     
  3833                           ;Mcal_layer/TIMER0/hal_timer0.c: 21:           ret = (std_returntype)0x00;
  3834   001C66  0E00               	movlw	0
  3835   001C68  6E44               	movwf	Timer0_Init@ret^0,c
  3836                           
  3837                           ;Mcal_layer/TIMER0/hal_timer0.c: 22:      }
  3838   001C6A  EF70  F00E         	goto	l2640
  3839   001C6E                     l369:
  3840                           
  3841                           ;Mcal_layer/TIMER0/hal_timer0.c: 24:          (T0CONbits.TMR0ON = 0);
  3842   001C6E  9ED5               	bcf	213,7,c	;volatile
  3843   001C70                     
  3844                           ;Mcal_layer/TIMER0/hal_timer0.c: 25:          Timer0_Prescaler_Config(_timer);
  3845   001C70  C041  F03F         	movff	Timer0_Init@_timer,Timer0_Prescaler_Config@_timer
  3846   001C74  ECD0  F00F         	call	_Timer0_Prescaler_Config	;wreg free
  3847                           
  3848                           ;Mcal_layer/TIMER0/hal_timer0.c: 26:          Timer0_Mode_Select(_timer);
  3849   001C78  C041  F03F         	movff	Timer0_Init@_timer,Timer0_Mode_Select@_timer
  3850   001C7C  ECAD  F00E         	call	_Timer0_Mode_Select	;wreg free
  3851                           
  3852                           ;Mcal_layer/TIMER0/hal_timer0.c: 27:          Timer0_Register_Size_Config(_timer);
  3853   001C80  C041  F03F         	movff	Timer0_Init@_timer,Timer0_Register_Size_Config@_timer
  3854   001C84  ECE0  F010         	call	_Timer0_Register_Size_Config	;wreg free
  3855   001C88                     
  3856                           ;Mcal_layer/TIMER0/hal_timer0.c: 28:          timer0_preload = _timer->timer0_preload_va
      +                          lue;
  3857   001C88  5041               	movf	Timer0_Init@_timer^0,w,c
  3858   001C8A  6ED9               	movwf	fsr2l,c
  3859   001C8C  6ADA               	clrf	fsr2h,c
  3860   001C8E  0E04               	movlw	4
  3861   001C90  26D9               	addwf	fsr2l,f,c
  3862   001C92  CFDE F062          	movff	postinc2,_timer0_preload
  3863   001C96  CFDD F063          	movff	postdec2,_timer0_preload+1
  3864   001C9A                     
  3865                           ;Mcal_layer/TIMER0/hal_timer0.c: 29:          TMR0H=(_timer->timer0_preload_value)>>8;
  3866   001C9A  5041               	movf	Timer0_Init@_timer^0,w,c
  3867   001C9C  6ED9               	movwf	fsr2l,c
  3868   001C9E  6ADA               	clrf	fsr2h,c
  3869   001CA0  0E04               	movlw	4
  3870   001CA2  26D9               	addwf	fsr2l,f,c
  3871   001CA4  CFDE F042          	movff	postinc2,??_Timer0_Init
  3872   001CA8  CFDD F043          	movff	postdec2,??_Timer0_Init+1
  3873   001CAC  C043  F042         	movff	??_Timer0_Init+1,??_Timer0_Init
  3874   001CB0  6A43               	clrf	(??_Timer0_Init+1)^0,c
  3875   001CB2  5042               	movf	??_Timer0_Init^0,w,c
  3876   001CB4  6ED7               	movwf	215,c	;volatile
  3877   001CB6                     
  3878                           ;Mcal_layer/TIMER0/hal_timer0.c: 30:          TMR0L=(uint8)(_timer->timer0_preload_value
      +                          );
  3879   001CB6  5041               	movf	Timer0_Init@_timer^0,w,c
  3880   001CB8  6ED9               	movwf	fsr2l,c
  3881   001CBA  6ADA               	clrf	fsr2h,c
  3882   001CBC  0E04               	movlw	4
  3883   001CBE  26D9               	addwf	fsr2l,f,c
  3884   001CC0  50DF               	movf	indf2,w,c
  3885   001CC2  6ED6               	movwf	214,c	;volatile
  3886   001CC4                     
  3887                           ;Mcal_layer/TIMER0/hal_timer0.c: 32:          (INTCONbits.TMR0IE = 1);
  3888   001CC4  8AF2               	bsf	242,5,c	;volatile
  3889   001CC6                     
  3890                           ;Mcal_layer/TIMER0/hal_timer0.c: 33:          (INTCONbits.TMR0IF = 0);
  3891   001CC6  94F2               	bcf	242,2,c	;volatile
  3892   001CC8                     
  3893                           ;Mcal_layer/TIMER0/hal_timer0.c: 34:          TMR0_InterruptHandler = _timer->TMR0_Inter
      +                          ruptHandler;
  3894   001CC8  5041               	movf	Timer0_Init@_timer^0,w,c
  3895   001CCA  6ED9               	movwf	fsr2l,c
  3896   001CCC  6ADA               	clrf	fsr2h,c
  3897   001CCE  CFDE F060          	movff	postinc2,_TMR0_InterruptHandler
  3898   001CD2  CFDD F061          	movff	postdec2,_TMR0_InterruptHandler+1
  3899   001CD6                     
  3900                           ;Mcal_layer/TIMER0/hal_timer0.c: 46:          (INTCONbits.GIE = 1);
  3901   001CD6  8EF2               	bsf	242,7,c	;volatile
  3902   001CD8                     
  3903                           ;Mcal_layer/TIMER0/hal_timer0.c: 47:          (INTCONbits.PEIE = 1);
  3904   001CD8  8CF2               	bsf	242,6,c	;volatile
  3905   001CDA                     
  3906                           ;Mcal_layer/TIMER0/hal_timer0.c: 50:         (T0CONbits.TMR0ON = 1);
  3907   001CDA  8ED5               	bsf	213,7,c	;volatile
  3908   001CDC                     
  3909                           ;Mcal_layer/TIMER0/hal_timer0.c: 51:          ret = (std_returntype)0x01;
  3910   001CDC  0E01               	movlw	1
  3911   001CDE  6E44               	movwf	Timer0_Init@ret^0,c
  3912   001CE0                     l2640:
  3913                           
  3914                           ;Mcal_layer/TIMER0/hal_timer0.c: 53:      return ret;
  3915   001CE0  5044               	movf	Timer0_Init@ret^0,w,c
  3916   001CE2  0012               	return		;funcret
  3917   001CE4                     __end_of_Timer0_Init:
  3918                           	callstack 0
  3919                           
  3920 ;; *************** function _Timer0_Register_Size_Config *****************
  3921 ;; Defined at:
  3922 ;;		line 133 in file "Mcal_layer/TIMER0/hal_timer0.c"
  3923 ;; Parameters:    Size  Location     Type
  3924 ;;  _timer          1    2[COMRAM] PTR const struct .
  3925 ;;		 -> timer_0(7), 
  3926 ;; Auto vars:     Size  Location     Type
  3927 ;;		None
  3928 ;; Return value:  Size  Location     Type
  3929 ;;                  1    wreg      void 
  3930 ;; Registers used:
  3931 ;;		wreg, fsr2l, fsr2h, status,2, status,0
  3932 ;; Tracked objects:
  3933 ;;		On entry : 0/0
  3934 ;;		On exit  : 0/0
  3935 ;;		Unchanged: 0/0
  3936 ;; Data sizes:     COMRAM   BANK0   BANK1   BANK2   BANK3   BANK4   BANK5   BANK6   BANK7   BANK8   BANK9  BANK10  BANK1
      +1  BANK12  BANK13  BANK14  BANK15
  3937 ;;      Params:         1       0       0       0       0       0       0       0       0       0       0       0       
      +0       0       0       0       0
  3938 ;;      Locals:         0       0       0       0       0       0       0       0       0       0       0       0       
      +0       0       0       0       0
  3939 ;;      Temps:          0       0       0       0       0       0       0       0       0       0       0       0       
      +0       0       0       0       0
  3940 ;;      Totals:         1       0       0       0       0       0       0       0       0       0       0       0       
      +0       0       0       0       0
  3941 ;;Total ram usage:        1 bytes
  3942 ;; Hardware stack levels used: 1
  3943 ;; Hardware stack levels required when called: 3
  3944 ;; This function calls:
  3945 ;;		Nothing
  3946 ;; This function is called by:
  3947 ;;		_Timer0_Init
  3948 ;; This function uses a non-reentrant model
  3949 ;;
  3950                           
  3951                           	psect	text23
  3952   0021C0                     __ptext23:
  3953                           	callstack 0
  3954   0021C0                     _Timer0_Register_Size_Config:
  3955                           	callstack 25
  3956   0021C0                     
  3957                           ;Mcal_layer/TIMER0/hal_timer0.c: 134:     if(1 == _timer->timer0_register_size){
  3958   0021C0  503F               	movf	Timer0_Register_Size_Config@_timer^0,w,c
  3959   0021C2  6ED9               	movwf	fsr2l,c
  3960   0021C4  6ADA               	clrf	fsr2h,c
  3961   0021C6  0E06               	movlw	6
  3962   0021C8  26D9               	addwf	fsr2l,f,c
  3963   0021CA  A6DF               	btfss	indf2,3,c
  3964   0021CC  EFEA  F010         	goto	u1391
  3965   0021D0  EFEC  F010         	goto	u1390
  3966   0021D4                     u1391:
  3967   0021D4  EFEF  F010         	goto	l2436
  3968   0021D8                     u1390:
  3969   0021D8                     
  3970                           ;Mcal_layer/TIMER0/hal_timer0.c: 135:         (T0CONbits.T08BIT = 1);
  3971   0021D8  8CD5               	bsf	213,6,c	;volatile
  3972                           
  3973                           ;Mcal_layer/TIMER0/hal_timer0.c: 136:     }
  3974   0021DA  EFFC  F010         	goto	l417
  3975   0021DE                     l2436:
  3976   0021DE  503F               	movf	Timer0_Register_Size_Config@_timer^0,w,c
  3977   0021E0  6ED9               	movwf	fsr2l,c
  3978   0021E2  6ADA               	clrf	fsr2h,c
  3979   0021E4  0E06               	movlw	6
  3980   0021E6  26D9               	addwf	fsr2l,f,c
  3981   0021E8  B6DF               	btfsc	indf2,3,c
  3982   0021EA  EFF9  F010         	goto	u1401
  3983   0021EE  EFFB  F010         	goto	u1400
  3984   0021F2                     u1401:
  3985   0021F2  EFFC  F010         	goto	l417
  3986   0021F6                     u1400:
  3987   0021F6                     
  3988                           ;Mcal_layer/TIMER0/hal_timer0.c: 138:         (T0CONbits.T08BIT = 0);
  3989   0021F6  9CD5               	bcf	213,6,c	;volatile
  3990   0021F8                     l417:
  3991   0021F8  0012               	return		;funcret
  3992   0021FA                     __end_of_Timer0_Register_Size_Config:
  3993                           	callstack 0
  3994                           
  3995 ;; *************** function _Timer0_Prescaler_Config *****************
  3996 ;; Defined at:
  3997 ;;		line 105 in file "Mcal_layer/TIMER0/hal_timer0.c"
  3998 ;; Parameters:    Size  Location     Type
  3999 ;;  _timer          1    2[COMRAM] PTR const struct .
  4000 ;;		 -> timer_0(7), 
  4001 ;; Auto vars:     Size  Location     Type
  4002 ;;		None
  4003 ;; Return value:  Size  Location     Type
  4004 ;;                  1    wreg      void 
  4005 ;; Registers used:
  4006 ;;		wreg, fsr2l, fsr2h, status,2, status,0
  4007 ;; Tracked objects:
  4008 ;;		On entry : 0/0
  4009 ;;		On exit  : 0/0
  4010 ;;		Unchanged: 0/0
  4011 ;; Data sizes:     COMRAM   BANK0   BANK1   BANK2   BANK3   BANK4   BANK5   BANK6   BANK7   BANK8   BANK9  BANK10  BANK1
      +1  BANK12  BANK13  BANK14  BANK15
  4012 ;;      Params:         1       0       0       0       0       0       0       0       0       0       0       0       
      +0       0       0       0       0
  4013 ;;      Locals:         0       0       0       0       0       0       0       0       0       0       0       0       
      +0       0       0       0       0
  4014 ;;      Temps:          1       0       0       0       0       0       0       0       0       0       0       0       
      +0       0       0       0       0
  4015 ;;      Totals:         2       0       0       0       0       0       0       0       0       0       0       0       
      +0       0       0       0       0
  4016 ;;Total ram usage:        2 bytes
  4017 ;; Hardware stack levels used: 1
  4018 ;; Hardware stack levels required when called: 3
  4019 ;; This function calls:
  4020 ;;		Nothing
  4021 ;; This function is called by:
  4022 ;;		_Timer0_Init
  4023 ;; This function uses a non-reentrant model
  4024 ;;
  4025                           
  4026                           	psect	text24
  4027   001FA0                     __ptext24:
  4028                           	callstack 0
  4029   001FA0                     _Timer0_Prescaler_Config:
  4030                           	callstack 25
  4031   001FA0                     
  4032                           ;Mcal_layer/TIMER0/hal_timer0.c: 106:     if(1 == _timer->prescaler_enable){
  4033   001FA0  503F               	movf	Timer0_Prescaler_Config@_timer^0,w,c
  4034   001FA2  6ED9               	movwf	fsr2l,c
  4035   001FA4  6ADA               	clrf	fsr2h,c
  4036   001FA6  0E06               	movlw	6
  4037   001FA8  26D9               	addwf	fsr2l,f,c
  4038   001FAA  A0DF               	btfss	indf2,0,c
  4039   001FAC  EFDA  F00F         	goto	u1331
  4040   001FB0  EFDC  F00F         	goto	u1330
  4041   001FB4                     u1331:
  4042   001FB4  EFEB  F00F         	goto	l2412
  4043   001FB8                     u1330:
  4044   001FB8                     
  4045                           ;Mcal_layer/TIMER0/hal_timer0.c: 107:         (T0CONbits.PSA = 0);
  4046   001FB8  96D5               	bcf	213,3,c	;volatile
  4047   001FBA                     
  4048                           ;Mcal_layer/TIMER0/hal_timer0.c: 108:         T0CONbits.T0PS = _timer->prescaler_value;
  4049   001FBA  503F               	movf	Timer0_Prescaler_Config@_timer^0,w,c
  4050   001FBC  6ED9               	movwf	fsr2l,c
  4051   001FBE  6ADA               	clrf	fsr2h,c
  4052   001FC0  0E03               	movlw	3
  4053   001FC2  26D9               	addwf	fsr2l,f,c
  4054   001FC4  50DF               	movf	indf2,w,c
  4055   001FC6  6E40               	movwf	??_Timer0_Prescaler_Config^0,c
  4056   001FC8  50D5               	movf	213,w,c	;volatile
  4057   001FCA  1840               	xorwf	??_Timer0_Prescaler_Config^0,w,c
  4058   001FCC  0BF8               	andlw	-8
  4059   001FCE  1840               	xorwf	??_Timer0_Prescaler_Config^0,w,c
  4060   001FD0  6ED5               	movwf	213,c	;volatile
  4061                           
  4062                           ;Mcal_layer/TIMER0/hal_timer0.c: 109:     }
  4063   001FD2  EFF8  F00F         	goto	l399
  4064   001FD6                     l2412:
  4065   001FD6  503F               	movf	Timer0_Prescaler_Config@_timer^0,w,c
  4066   001FD8  6ED9               	movwf	fsr2l,c
  4067   001FDA  6ADA               	clrf	fsr2h,c
  4068   001FDC  0E06               	movlw	6
  4069   001FDE  26D9               	addwf	fsr2l,f,c
  4070   001FE0  B0DF               	btfsc	indf2,0,c
  4071   001FE2  EFF5  F00F         	goto	u1341
  4072   001FE6  EFF7  F00F         	goto	u1340
  4073   001FEA                     u1341:
  4074   001FEA  EFF8  F00F         	goto	l399
  4075   001FEE                     u1340:
  4076   001FEE                     
  4077                           ;Mcal_layer/TIMER0/hal_timer0.c: 111:         (T0CONbits.PSA = 1);
  4078   001FEE  86D5               	bsf	213,3,c	;volatile
  4079   001FF0                     l399:
  4080   001FF0  0012               	return		;funcret
  4081   001FF2                     __end_of_Timer0_Prescaler_Config:
  4082                           	callstack 0
  4083                           
  4084 ;; *************** function _Timer0_Mode_Select *****************
  4085 ;; Defined at:
  4086 ;;		line 116 in file "Mcal_layer/TIMER0/hal_timer0.c"
  4087 ;; Parameters:    Size  Location     Type
  4088 ;;  _timer          1    2[COMRAM] PTR const struct .
  4089 ;;		 -> timer_0(7), 
  4090 ;; Auto vars:     Size  Location     Type
  4091 ;;		None
  4092 ;; Return value:  Size  Location     Type
  4093 ;;                  1    wreg      void 
  4094 ;; Registers used:
  4095 ;;		wreg, fsr2l, fsr2h, status,2, status,0
  4096 ;; Tracked objects:
  4097 ;;		On entry : 0/0
  4098 ;;		On exit  : 0/0
  4099 ;;		Unchanged: 0/0
  4100 ;; Data sizes:     COMRAM   BANK0   BANK1   BANK2   BANK3   BANK4   BANK5   BANK6   BANK7   BANK8   BANK9  BANK10  BANK1
      +1  BANK12  BANK13  BANK14  BANK15
  4101 ;;      Params:         1       0       0       0       0       0       0       0       0       0       0       0       
      +0       0       0       0       0
  4102 ;;      Locals:         0       0       0       0       0       0       0       0       0       0       0       0       
      +0       0       0       0       0
  4103 ;;      Temps:          0       0       0       0       0       0       0       0       0       0       0       0       
      +0       0       0       0       0
  4104 ;;      Totals:         1       0       0       0       0       0       0       0       0       0       0       0       
      +0       0       0       0       0
  4105 ;;Total ram usage:        1 bytes
  4106 ;; Hardware stack levels used: 1
  4107 ;; Hardware stack levels required when called: 3
  4108 ;; This function calls:
  4109 ;;		Nothing
  4110 ;; This function is called by:
  4111 ;;		_Timer0_Init
  4112 ;; This function uses a non-reentrant model
  4113 ;;
  4114                           
  4115                           	psect	text25
  4116   001D5A                     __ptext25:
  4117                           	callstack 0
  4118   001D5A                     _Timer0_Mode_Select:
  4119                           	callstack 25
  4120   001D5A                     
  4121                           ;Mcal_layer/TIMER0/hal_timer0.c: 117:     if(1 == _timer->timer0_mode){
  4122   001D5A  503F               	movf	Timer0_Mode_Select@_timer^0,w,c
  4123   001D5C  6ED9               	movwf	fsr2l,c
  4124   001D5E  6ADA               	clrf	fsr2h,c
  4125   001D60  0E06               	movlw	6
  4126   001D62  26D9               	addwf	fsr2l,f,c
  4127   001D64  A4DF               	btfss	indf2,2,c
  4128   001D66  EFB7  F00E         	goto	u1351
  4129   001D6A  EFB9  F00E         	goto	u1350
  4130   001D6E                     u1351:
  4131   001D6E  EFBC  F00E         	goto	l2420
  4132   001D72                     u1350:
  4133   001D72                     
  4134                           ;Mcal_layer/TIMER0/hal_timer0.c: 118:         (T0CONbits.T0CS = 0);
  4135   001D72  9AD5               	bcf	213,5,c	;volatile
  4136                           
  4137                           ;Mcal_layer/TIMER0/hal_timer0.c: 119:     }
  4138   001D74  EFE7  F00E         	goto	l410
  4139   001D78                     l2420:
  4140   001D78  503F               	movf	Timer0_Mode_Select@_timer^0,w,c
  4141   001D7A  6ED9               	movwf	fsr2l,c
  4142   001D7C  6ADA               	clrf	fsr2h,c
  4143   001D7E  0E06               	movlw	6
  4144   001D80  26D9               	addwf	fsr2l,f,c
  4145   001D82  B4DF               	btfsc	indf2,2,c
  4146   001D84  EFC6  F00E         	goto	u1361
  4147   001D88  EFC8  F00E         	goto	u1360
  4148   001D8C                     u1361:
  4149   001D8C  EFE7  F00E         	goto	l410
  4150   001D90                     u1360:
  4151   001D90                     
  4152                           ;Mcal_layer/TIMER0/hal_timer0.c: 121:         (T0CONbits.T0CS = 1);
  4153   001D90  8AD5               	bsf	213,5,c	;volatile
  4154   001D92                     
  4155                           ;Mcal_layer/TIMER0/hal_timer0.c: 122:         if(1 == _timer->timer0_counter_edge){
  4156   001D92  503F               	movf	Timer0_Mode_Select@_timer^0,w,c
  4157   001D94  6ED9               	movwf	fsr2l,c
  4158   001D96  6ADA               	clrf	fsr2h,c
  4159   001D98  0E06               	movlw	6
  4160   001D9A  26D9               	addwf	fsr2l,f,c
  4161   001D9C  A2DF               	btfss	indf2,1,c
  4162   001D9E  EFD3  F00E         	goto	u1371
  4163   001DA2  EFD5  F00E         	goto	u1370
  4164   001DA6                     u1371:
  4165   001DA6  EFD8  F00E         	goto	l2428
  4166   001DAA                     u1370:
  4167   001DAA                     
  4168                           ;Mcal_layer/TIMER0/hal_timer0.c: 123:             (T0CONbits.T0SE = 0);
  4169   001DAA  98D5               	bcf	213,4,c	;volatile
  4170                           
  4171                           ;Mcal_layer/TIMER0/hal_timer0.c: 124:         }
  4172   001DAC  EFE7  F00E         	goto	l410
  4173   001DB0                     l2428:
  4174   001DB0  503F               	movf	Timer0_Mode_Select@_timer^0,w,c
  4175   001DB2  6ED9               	movwf	fsr2l,c
  4176   001DB4  6ADA               	clrf	fsr2h,c
  4177   001DB6  0E06               	movlw	6
  4178   001DB8  26D9               	addwf	fsr2l,f,c
  4179   001DBA  B2DF               	btfsc	indf2,1,c
  4180   001DBC  EFE2  F00E         	goto	u1381
  4181   001DC0  EFE4  F00E         	goto	u1380
  4182   001DC4                     u1381:
  4183   001DC4  EFE7  F00E         	goto	l409
  4184   001DC8                     u1380:
  4185   001DC8                     
  4186                           ;Mcal_layer/TIMER0/hal_timer0.c: 126:             (T0CONbits.T0SE = 1);
  4187   001DC8  88D5               	bsf	213,4,c	;volatile
  4188                           
  4189                           ;Mcal_layer/TIMER0/hal_timer0.c: 127:         }
  4190   001DCA  EFE7  F00E         	goto	l410
  4191   001DCE                     l409:
  4192   001DCE                     l410:
  4193   001DCE  0012               	return		;funcret
  4194   001DD0                     __end_of_Timer0_Mode_Select:
  4195                           	callstack 0
  4196                           
  4197 ;; *************** function ___awmod *****************
  4198 ;; Defined at:
  4199 ;;		line 7 in file "C:\Program Files\Microchip\xc8\v2.45\pic\sources\c99\common\awmod.c"
  4200 ;; Parameters:    Size  Location     Type
  4201 ;;  dividend        2    2[COMRAM] int 
  4202 ;;  divisor         2    4[COMRAM] int 
  4203 ;; Auto vars:     Size  Location     Type
  4204 ;;  sign            1    7[COMRAM] unsigned char 
  4205 ;;  counter         1    6[COMRAM] unsigned char 
  4206 ;; Return value:  Size  Location     Type
  4207 ;;                  2    2[COMRAM] int 
  4208 ;; Registers used:
  4209 ;;		wreg, status,2, status,0
  4210 ;; Tracked objects:
  4211 ;;		On entry : 0/0
  4212 ;;		On exit  : 0/0
  4213 ;;		Unchanged: 0/0
  4214 ;; Data sizes:     COMRAM   BANK0   BANK1   BANK2   BANK3   BANK4   BANK5   BANK6   BANK7   BANK8   BANK9  BANK10  BANK1
      +1  BANK12  BANK13  BANK14  BANK15
  4215 ;;      Params:         4       0       0       0       0       0       0       0       0       0       0       0       
      +0       0       0       0       0
  4216 ;;      Locals:         2       0       0       0       0       0       0       0       0       0       0       0       
      +0       0       0       0       0
  4217 ;;      Temps:          0       0       0       0       0       0       0       0       0       0       0       0       
      +0       0       0       0       0
  4218 ;;      Totals:         6       0       0       0       0       0       0       0       0       0       0       0       
      +0       0       0       0       0
  4219 ;;Total ram usage:        6 bytes
  4220 ;; Hardware stack levels used: 1
  4221 ;; Hardware stack levels required when called: 3
  4222 ;; This function calls:
  4223 ;;		Nothing
  4224 ;; This function is called by:
  4225 ;;		_main
  4226 ;; This function uses a non-reentrant model
  4227 ;;
  4228                           
  4229                           	psect	text26
  4230   001A5A                     __ptext26:
  4231                           	callstack 0
  4232   001A5A                     ___awmod:
  4233                           	callstack 27
  4234   001A5A  0E00               	movlw	0
  4235   001A5C  6E44               	movwf	___awmod@sign^0,c
  4236   001A5E  BE40               	btfsc	(___awmod@dividend+1)^0,7,c
  4237   001A60  EF36  F00D         	goto	u1760
  4238   001A64  EF34  F00D         	goto	u1761
  4239   001A68                     u1761:
  4240   001A68  EF3C  F00D         	goto	l2820
  4241   001A6C                     u1760:
  4242   001A6C  6C3F               	negf	___awmod@dividend^0,c
  4243   001A6E  1E40               	comf	(___awmod@dividend+1)^0,f,c
  4244   001A70  B0D8               	btfsc	status,0,c
  4245   001A72  2A40               	incf	(___awmod@dividend+1)^0,f,c
  4246   001A74  0E01               	movlw	1
  4247   001A76  6E44               	movwf	___awmod@sign^0,c
  4248   001A78                     l2820:
  4249   001A78  BE42               	btfsc	(___awmod@divisor+1)^0,7,c
  4250   001A7A  EF43  F00D         	goto	u1770
  4251   001A7E  EF41  F00D         	goto	u1771
  4252   001A82                     u1771:
  4253   001A82  EF47  F00D         	goto	l2824
  4254   001A86                     u1770:
  4255   001A86  6C41               	negf	___awmod@divisor^0,c
  4256   001A88  1E42               	comf	(___awmod@divisor+1)^0,f,c
  4257   001A8A  B0D8               	btfsc	status,0,c
  4258   001A8C  2A42               	incf	(___awmod@divisor+1)^0,f,c
  4259   001A8E                     l2824:
  4260   001A8E  5041               	movf	___awmod@divisor^0,w,c
  4261   001A90  1042               	iorwf	(___awmod@divisor+1)^0,w,c
  4262   001A92  B4D8               	btfsc	status,2,c
  4263   001A94  EF4E  F00D         	goto	u1781
  4264   001A98  EF50  F00D         	goto	u1780
  4265   001A9C                     u1781:
  4266   001A9C  EF74  F00D         	goto	l2840
  4267   001AA0                     u1780:
  4268   001AA0  0E01               	movlw	1
  4269   001AA2  6E43               	movwf	___awmod@counter^0,c
  4270   001AA4  EF58  F00D         	goto	l2830
  4271   001AA8                     l2828:
  4272   001AA8  90D8               	bcf	status,0,c
  4273   001AAA  3641               	rlcf	___awmod@divisor^0,f,c
  4274   001AAC  3642               	rlcf	(___awmod@divisor+1)^0,f,c
  4275   001AAE  2A43               	incf	___awmod@counter^0,f,c
  4276   001AB0                     l2830:
  4277   001AB0  AE42               	btfss	(___awmod@divisor+1)^0,7,c
  4278   001AB2  EF5D  F00D         	goto	u1791
  4279   001AB6  EF5F  F00D         	goto	u1790
  4280   001ABA                     u1791:
  4281   001ABA  EF54  F00D         	goto	l2828
  4282   001ABE                     u1790:
  4283   001ABE                     l2832:
  4284   001ABE  5041               	movf	___awmod@divisor^0,w,c
  4285   001AC0  5C3F               	subwf	___awmod@dividend^0,w,c
  4286   001AC2  5042               	movf	(___awmod@divisor+1)^0,w,c
  4287   001AC4  5840               	subwfb	(___awmod@dividend+1)^0,w,c
  4288   001AC6  A0D8               	btfss	status,0,c
  4289   001AC8  EF68  F00D         	goto	u1801
  4290   001ACC  EF6A  F00D         	goto	u1800
  4291   001AD0                     u1801:
  4292   001AD0  EF6E  F00D         	goto	l2836
  4293   001AD4                     u1800:
  4294   001AD4  5041               	movf	___awmod@divisor^0,w,c
  4295   001AD6  5E3F               	subwf	___awmod@dividend^0,f,c
  4296   001AD8  5042               	movf	(___awmod@divisor+1)^0,w,c
  4297   001ADA  5A40               	subwfb	(___awmod@dividend+1)^0,f,c
  4298   001ADC                     l2836:
  4299   001ADC  90D8               	bcf	status,0,c
  4300   001ADE  3242               	rrcf	(___awmod@divisor+1)^0,f,c
  4301   001AE0  3241               	rrcf	___awmod@divisor^0,f,c
  4302   001AE2  2E43               	decfsz	___awmod@counter^0,f,c
  4303   001AE4  EF5F  F00D         	goto	l2832
  4304   001AE8                     l2840:
  4305   001AE8  5044               	movf	___awmod@sign^0,w,c
  4306   001AEA  B4D8               	btfsc	status,2,c
  4307   001AEC  EF7A  F00D         	goto	u1811
  4308   001AF0  EF7C  F00D         	goto	u1810
  4309   001AF4                     u1811:
  4310   001AF4  EF80  F00D         	goto	l2844
  4311   001AF8                     u1810:
  4312   001AF8  6C3F               	negf	___awmod@dividend^0,c
  4313   001AFA  1E40               	comf	(___awmod@dividend+1)^0,f,c
  4314   001AFC  B0D8               	btfsc	status,0,c
  4315   001AFE  2A40               	incf	(___awmod@dividend+1)^0,f,c
  4316   001B00                     l2844:
  4317   001B00  C03F  F03F         	movff	___awmod@dividend,?___awmod
  4318   001B04  C040  F040         	movff	___awmod@dividend+1,?___awmod+1
  4319   001B08  0012               	return		;funcret
  4320   001B0A                     __end_of___awmod:
  4321                           	callstack 0
  4322                           
  4323 ;; *************** function ___awdiv *****************
  4324 ;; Defined at:
  4325 ;;		line 7 in file "C:\Program Files\Microchip\xc8\v2.45\pic\sources\c99\common\awdiv.c"
  4326 ;; Parameters:    Size  Location     Type
  4327 ;;  dividend        2    2[COMRAM] int 
  4328 ;;  divisor         2    4[COMRAM] int 
  4329 ;; Auto vars:     Size  Location     Type
  4330 ;;  quotient        2    8[COMRAM] int 
  4331 ;;  sign            1    7[COMRAM] unsigned char 
  4332 ;;  counter         1    6[COMRAM] unsigned char 
  4333 ;; Return value:  Size  Location     Type
  4334 ;;                  2    2[COMRAM] int 
  4335 ;; Registers used:
  4336 ;;		wreg, status,2, status,0
  4337 ;; Tracked objects:
  4338 ;;		On entry : 0/0
  4339 ;;		On exit  : 0/0
  4340 ;;		Unchanged: 0/0
  4341 ;; Data sizes:     COMRAM   BANK0   BANK1   BANK2   BANK3   BANK4   BANK5   BANK6   BANK7   BANK8   BANK9  BANK10  BANK1
      +1  BANK12  BANK13  BANK14  BANK15
  4342 ;;      Params:         4       0       0       0       0       0       0       0       0       0       0       0       
      +0       0       0       0       0
  4343 ;;      Locals:         4       0       0       0       0       0       0       0       0       0       0       0       
      +0       0       0       0       0
  4344 ;;      Temps:          0       0       0       0       0       0       0       0       0       0       0       0       
      +0       0       0       0       0
  4345 ;;      Totals:         8       0       0       0       0       0       0       0       0       0       0       0       
      +0       0       0       0       0
  4346 ;;Total ram usage:        8 bytes
  4347 ;; Hardware stack levels used: 1
  4348 ;; Hardware stack levels required when called: 3
  4349 ;; This function calls:
  4350 ;;		Nothing
  4351 ;; This function is called by:
  4352 ;;		_main
  4353 ;; This function uses a non-reentrant model
  4354 ;;
  4355                           
  4356                           	psect	text27
  4357   001996                     __ptext27:
  4358                           	callstack 0
  4359   001996                     ___awdiv:
  4360                           	callstack 27
  4361   001996  0E00               	movlw	0
  4362   001998  6E44               	movwf	___awdiv@sign^0,c
  4363   00199A  BE42               	btfsc	(___awdiv@divisor+1)^0,7,c
  4364   00199C  EFD4  F00C         	goto	u1700
  4365   0019A0  EFD2  F00C         	goto	u1701
  4366   0019A4                     u1701:
  4367   0019A4  EFDA  F00C         	goto	l2776
  4368   0019A8                     u1700:
  4369   0019A8  6C41               	negf	___awdiv@divisor^0,c
  4370   0019AA  1E42               	comf	(___awdiv@divisor+1)^0,f,c
  4371   0019AC  B0D8               	btfsc	status,0,c
  4372   0019AE  2A42               	incf	(___awdiv@divisor+1)^0,f,c
  4373   0019B0  0E01               	movlw	1
  4374   0019B2  6E44               	movwf	___awdiv@sign^0,c
  4375   0019B4                     l2776:
  4376   0019B4  BE40               	btfsc	(___awdiv@dividend+1)^0,7,c
  4377   0019B6  EFE1  F00C         	goto	u1710
  4378   0019BA  EFDF  F00C         	goto	u1711
  4379   0019BE                     u1711:
  4380   0019BE  EFE7  F00C         	goto	l2782
  4381   0019C2                     u1710:
  4382   0019C2  6C3F               	negf	___awdiv@dividend^0,c
  4383   0019C4  1E40               	comf	(___awdiv@dividend+1)^0,f,c
  4384   0019C6  B0D8               	btfsc	status,0,c
  4385   0019C8  2A40               	incf	(___awdiv@dividend+1)^0,f,c
  4386   0019CA  0E01               	movlw	1
  4387   0019CC  1A44               	xorwf	___awdiv@sign^0,f,c
  4388   0019CE                     l2782:
  4389   0019CE  0E00               	movlw	0
  4390   0019D0  6E46               	movwf	(___awdiv@quotient+1)^0,c
  4391   0019D2  0E00               	movlw	0
  4392   0019D4  6E45               	movwf	___awdiv@quotient^0,c
  4393   0019D6  5041               	movf	___awdiv@divisor^0,w,c
  4394   0019D8  1042               	iorwf	(___awdiv@divisor+1)^0,w,c
  4395   0019DA  B4D8               	btfsc	status,2,c
  4396   0019DC  EFF2  F00C         	goto	u1721
  4397   0019E0  EFF4  F00C         	goto	u1720
  4398   0019E4                     u1721:
  4399   0019E4  EF1C  F00D         	goto	l2804
  4400   0019E8                     u1720:
  4401   0019E8  0E01               	movlw	1
  4402   0019EA  6E43               	movwf	___awdiv@counter^0,c
  4403   0019EC  EFFC  F00C         	goto	l2790
  4404   0019F0                     l2788:
  4405   0019F0  90D8               	bcf	status,0,c
  4406   0019F2  3641               	rlcf	___awdiv@divisor^0,f,c
  4407   0019F4  3642               	rlcf	(___awdiv@divisor+1)^0,f,c
  4408   0019F6  2A43               	incf	___awdiv@counter^0,f,c
  4409   0019F8                     l2790:
  4410   0019F8  AE42               	btfss	(___awdiv@divisor+1)^0,7,c
  4411   0019FA  EF01  F00D         	goto	u1731
  4412   0019FE  EF03  F00D         	goto	u1730
  4413   001A02                     u1731:
  4414   001A02  EFF8  F00C         	goto	l2788
  4415   001A06                     u1730:
  4416   001A06                     l2792:
  4417   001A06  90D8               	bcf	status,0,c
  4418   001A08  3645               	rlcf	___awdiv@quotient^0,f,c
  4419   001A0A  3646               	rlcf	(___awdiv@quotient+1)^0,f,c
  4420   001A0C  5041               	movf	___awdiv@divisor^0,w,c
  4421   001A0E  5C3F               	subwf	___awdiv@dividend^0,w,c
  4422   001A10  5042               	movf	(___awdiv@divisor+1)^0,w,c
  4423   001A12  5840               	subwfb	(___awdiv@dividend+1)^0,w,c
  4424   001A14  A0D8               	btfss	status,0,c
  4425   001A16  EF0F  F00D         	goto	u1741
  4426   001A1A  EF11  F00D         	goto	u1740
  4427   001A1E                     u1741:
  4428   001A1E  EF16  F00D         	goto	l2800
  4429   001A22                     u1740:
  4430   001A22  5041               	movf	___awdiv@divisor^0,w,c
  4431   001A24  5E3F               	subwf	___awdiv@dividend^0,f,c
  4432   001A26  5042               	movf	(___awdiv@divisor+1)^0,w,c
  4433   001A28  5A40               	subwfb	(___awdiv@dividend+1)^0,f,c
  4434   001A2A  8045               	bsf	___awdiv@quotient^0,0,c
  4435   001A2C                     l2800:
  4436   001A2C  90D8               	bcf	status,0,c
  4437   001A2E  3242               	rrcf	(___awdiv@divisor+1)^0,f,c
  4438   001A30  3241               	rrcf	___awdiv@divisor^0,f,c
  4439   001A32  2E43               	decfsz	___awdiv@counter^0,f,c
  4440   001A34  EF03  F00D         	goto	l2792
  4441   001A38                     l2804:
  4442   001A38  5044               	movf	___awdiv@sign^0,w,c
  4443   001A3A  B4D8               	btfsc	status,2,c
  4444   001A3C  EF22  F00D         	goto	u1751
  4445   001A40  EF24  F00D         	goto	u1750
  4446   001A44                     u1751:
  4447   001A44  EF28  F00D         	goto	l2808
  4448   001A48                     u1750:
  4449   001A48  6C45               	negf	___awdiv@quotient^0,c
  4450   001A4A  1E46               	comf	(___awdiv@quotient+1)^0,f,c
  4451   001A4C  B0D8               	btfsc	status,0,c
  4452   001A4E  2A46               	incf	(___awdiv@quotient+1)^0,f,c
  4453   001A50                     l2808:
  4454   001A50  C045  F03F         	movff	___awdiv@quotient,?___awdiv
  4455   001A54  C046  F040         	movff	___awdiv@quotient+1,?___awdiv+1
  4456   001A58  0012               	return		;funcret
  4457   001A5A                     __end_of___awdiv:
  4458                           	callstack 0
  4459                           
  4460 ;; *************** function _InterruptManagerHigh *****************
  4461 ;; Defined at:
  4462 ;;		line 33 in file "Mcal_layer/interrupt/mcal_interrupt_manager.c"
  4463 ;; Parameters:    Size  Location     Type
  4464 ;;		None
  4465 ;; Auto vars:     Size  Location     Type
  4466 ;;		None
  4467 ;; Return value:  Size  Location     Type
  4468 ;;                  1    wreg      void 
  4469 ;; Registers used:
  4470 ;;		wreg, status,2, status,0, pcl, pclath, pclatu, tosl, cstack
  4471 ;; Tracked objects:
  4472 ;;		On entry : 0/0
  4473 ;;		On exit  : 0/0
  4474 ;;		Unchanged: 0/0
  4475 ;; Data sizes:     COMRAM   BANK0   BANK1   BANK2   BANK3   BANK4   BANK5   BANK6   BANK7   BANK8   BANK9  BANK10  BANK1
      +1  BANK12  BANK13  BANK14  BANK15
  4476 ;;      Params:         0       0       0       0       0       0       0       0       0       0       0       0       
      +0       0       0       0       0
  4477 ;;      Locals:         0       0       0       0       0       0       0       0       0       0       0       0       
      +0       0       0       0       0
  4478 ;;      Temps:          2       0       0       0       0       0       0       0       0       0       0       0       
      +0       0       0       0       0
  4479 ;;      Totals:         2       0       0       0       0       0       0       0       0       0       0       0       
      +0       0       0       0       0
  4480 ;;Total ram usage:        2 bytes
  4481 ;; Hardware stack levels used: 1
  4482 ;; Hardware stack levels required when called: 2
  4483 ;; This function calls:
  4484 ;;		_TMR0_ISR
  4485 ;; This function is called by:
  4486 ;;		Interrupt level 2
  4487 ;; This function uses a non-reentrant model
  4488 ;;
  4489                           
  4490                           	psect	intcode
  4491   000008                     __pintcode:
  4492                           	callstack 0
  4493   000008                     _InterruptManagerHigh:
  4494                           	callstack 23
  4495                           
  4496                           ;incstack = 0
  4497   000008  826B               	bsf	int$flags,1,c	;set compiler interrupt flag (level 2)
  4498   00000A  ED18  F011         	call	int_func,f	;refresh shadow registers
  4499                           
  4500                           	psect	intcode_body
  4501   002230                     __pintcode_body:
  4502                           	callstack 23
  4503   002230                     int_func:
  4504                           	callstack 23
  4505   002230  0006               	pop		; remove dummy address from shadow register refresh
  4506   002232  CFFA F03D          	movff	pclath,??_InterruptManagerHigh
  4507   002236  CFFB F03E          	movff	pclatu,??_InterruptManagerHigh+1
  4508   00223A                     
  4509                           ;Mcal_layer/interrupt/mcal_interrupt_manager.c: 35:  if((1 == INTCONbits.TMR0IE) && (1 =
      +                          = INTCONbits.TMR0IF)){
  4510   00223A  AAF2               	btfss	242,5,c	;volatile
  4511   00223C  EF22  F011         	goto	i2u99_41
  4512   002240  EF24  F011         	goto	i2u99_40
  4513   002244                     i2u99_41:
  4514   002244  EF2D  F011         	goto	i2l348
  4515   002248                     i2u99_40:
  4516   002248  A4F2               	btfss	242,2,c	;volatile
  4517   00224A  EF29  F011         	goto	i2u100_41
  4518   00224E  EF2B  F011         	goto	i2u100_40
  4519   002252                     i2u100_41:
  4520   002252  EF2D  F011         	goto	i2l348
  4521   002256                     i2u100_40:
  4522   002256                     
  4523                           ;Mcal_layer/interrupt/mcal_interrupt_manager.c: 36:      TMR0_ISR();
  4524   002256  EC33  F011         	call	_TMR0_ISR	;wreg free
  4525   00225A                     i2l348:
  4526   00225A  C03E  FFFB         	movff	??_InterruptManagerHigh+1,pclatu
  4527   00225E  C03D  FFFA         	movff	??_InterruptManagerHigh,pclath
  4528   002262  926B               	bcf	int$flags,1,c	;clear compiler interrupt flag (level 2)
  4529   002264  0011               	retfie		f
  4530   002266                     __end_of_InterruptManagerHigh:
  4531                           	callstack 0
  4532                           
  4533 ;; *************** function _TMR0_ISR *****************
  4534 ;; Defined at:
  4535 ;;		line 96 in file "Mcal_layer/TIMER0/hal_timer0.c"
  4536 ;; Parameters:    Size  Location     Type
  4537 ;;		None
  4538 ;; Auto vars:     Size  Location     Type
  4539 ;;		None
  4540 ;; Return value:  Size  Location     Type
  4541 ;;                  1    wreg      void 
  4542 ;; Registers used:
  4543 ;;		wreg, status,2, status,0, pcl, pclath, pclatu, tosl, cstack
  4544 ;; Tracked objects:
  4545 ;;		On entry : 0/0
  4546 ;;		On exit  : 0/0
  4547 ;;		Unchanged: 0/0
  4548 ;; Data sizes:     COMRAM   BANK0   BANK1   BANK2   BANK3   BANK4   BANK5   BANK6   BANK7   BANK8   BANK9  BANK10  BANK1
      +1  BANK12  BANK13  BANK14  BANK15
  4549 ;;      Params:         0       0       0       0       0       0       0       0       0       0       0       0       
      +0       0       0       0       0
  4550 ;;      Locals:         0       0       0       0       0       0       0       0       0       0       0       0       
      +0       0       0       0       0
  4551 ;;      Temps:          0       0       0       0       0       0       0       0       0       0       0       0       
      +0       0       0       0       0
  4552 ;;      Totals:         0       0       0       0       0       0       0       0       0       0       0       0       
      +0       0       0       0       0
  4553 ;;Total ram usage:        0 bytes
  4554 ;; Hardware stack levels used: 1
  4555 ;; Hardware stack levels required when called: 1
  4556 ;; This function calls:
  4557 ;;		NULL
  4558 ;;		_Interrupt_handler
  4559 ;; This function is called by:
  4560 ;;		_InterruptManagerHigh
  4561 ;; This function uses a non-reentrant model
  4562 ;;
  4563                           
  4564                           	psect	text29
  4565   002266                     __ptext29:
  4566                           	callstack 0
  4567   002266                     _TMR0_ISR:
  4568                           	callstack 23
  4569   002266                     
  4570                           ;Mcal_layer/TIMER0/hal_timer0.c: 97:     (INTCONbits.TMR0IF = 0);
  4571   002266  94F2               	bcf	242,2,c	;volatile
  4572   002268                     
  4573                           ;Mcal_layer/TIMER0/hal_timer0.c: 98:      TMR0H=(timer0_preload)>>8;
  4574   002268  5063               	movf	(_timer0_preload+1)^0,w,c
  4575   00226A  6ED7               	movwf	215,c	;volatile
  4576   00226C                     
  4577                           ;Mcal_layer/TIMER0/hal_timer0.c: 99:      TMR0L=(uint8)(timer0_preload);
  4578   00226C  C062  FFD6         	movff	_timer0_preload,4054	;volatile
  4579   002270                     
  4580                           ;Mcal_layer/TIMER0/hal_timer0.c: 100:     if(TMR0_InterruptHandler){
  4581   002270  5060               	movf	_TMR0_InterruptHandler^0,w,c
  4582   002272  1061               	iorwf	(_TMR0_InterruptHandler+1)^0,w,c
  4583   002274  B4D8               	btfsc	status,2,c
  4584   002276  EF3F  F011         	goto	i2u55_41
  4585   00227A  EF41  F011         	goto	i2u55_40
  4586   00227E                     i2u55_41:
  4587   00227E  EF4D  F011         	goto	i2l392
  4588   002282                     i2u55_40:
  4589   002282                     
  4590                           ;Mcal_layer/TIMER0/hal_timer0.c: 101:         TMR0_InterruptHandler();
  4591   002282  D802               	call	i2u56_48
  4592   002284  EF4D  F011         	goto	i2u56_49
  4593   002288                     i2u56_48:
  4594   002288  0005               	push	
  4595   00228A  6EFA               	movwf	pclath,c
  4596   00228C  5060               	movf	_TMR0_InterruptHandler^0,w,c
  4597   00228E  6EFD               	movwf	tosl,c
  4598   002290  5061               	movf	(_TMR0_InterruptHandler+1)^0,w,c
  4599   002292  6EFE               	movwf	tosh,c
  4600   002294  6AFF               	clrf	tosu,c
  4601   002296  50FA               	movf	pclath,w,c
  4602   002298  0012               	return		;indir
  4603   00229A                     i2u56_49:
  4604   00229A                     i2l392:
  4605   00229A  0012               	return		;funcret
  4606   00229C                     __end_of_TMR0_ISR:
  4607                           	callstack 0
  4608                           
  4609 ;; *************** function _Interrupt_handler *****************
  4610 ;; Defined at:
  4611 ;;		line 16 in file "application.c"
  4612 ;; Parameters:    Size  Location     Type
  4613 ;;		None
  4614 ;; Auto vars:     Size  Location     Type
  4615 ;;		None
  4616 ;; Return value:  Size  Location     Type
  4617 ;;                  1    wreg      void 
  4618 ;; Registers used:
  4619 ;;		status,2, status,0
  4620 ;; Tracked objects:
  4621 ;;		On entry : 0/0
  4622 ;;		On exit  : 0/0
  4623 ;;		Unchanged: 0/0
  4624 ;; Data sizes:     COMRAM   BANK0   BANK1   BANK2   BANK3   BANK4   BANK5   BANK6   BANK7   BANK8   BANK9  BANK10  BANK1
      +1  BANK12  BANK13  BANK14  BANK15
  4625 ;;      Params:         0       0       0       0       0       0       0       0       0       0       0       0       
      +0       0       0       0       0
  4626 ;;      Locals:         0       0       0       0       0       0       0       0       0       0       0       0       
      +0       0       0       0       0
  4627 ;;      Temps:          0       0       0       0       0       0       0       0       0       0       0       0       
      +0       0       0       0       0
  4628 ;;      Totals:         0       0       0       0       0       0       0       0       0       0       0       0       
      +0       0       0       0       0
  4629 ;;Total ram usage:        0 bytes
  4630 ;; Hardware stack levels used: 1
  4631 ;; This function calls:
  4632 ;;		Nothing
  4633 ;; This function is called by:
  4634 ;;		_TMR0_ISR
  4635 ;; This function uses a non-reentrant model
  4636 ;;
  4637                           
  4638                           	psect	text30
  4639   002310                     __ptext30:
  4640                           	callstack 0
  4641   002310                     _Interrupt_handler:
  4642                           	callstack 23
  4643   002310                     
  4644                           ;application.c: 17:     sec+=1;
  4645   002310  2A66               	incf	_sec^0,f,c
  4646   002312  0012               	return		;funcret
  4647   002314                     __end_of_Interrupt_handler:
  4648                           	callstack 0
  4649                           
  4650                           	psect	text31
  4651   000000                     __ptext31:
  4652                           	callstack 0
  4653   000000                     
  4654                           	psect	rparam
  4655   000000                     
  4656                           	psect	temp
  4657   00006B                     btemp:
  4658                           	callstack 0
  4659   00006B                     	ds	1
  4660   000000                     int$flags	set	btemp
  4661   000000                     wtemp8	set	btemp+1
  4662   000000                     ttemp5	set	btemp+1
  4663   000000                     ttemp6	set	btemp+4
  4664   000000                     ttemp7	set	btemp+8
  4665                           tosu	equ	0xFFF
  4666                           tosh	equ	0xFFE
  4667                           tosl	equ	0xFFD
  4668                           stkptr	equ	0xFFC
  4669                           pclatu	equ	0xFFB
  4670                           pclath	equ	0xFFA
  4671                           pcl	equ	0xFF9
  4672                           tblptru	equ	0xFF8
  4673                           tblptrh	equ	0xFF7
  4674                           tblptrl	equ	0xFF6
  4675                           tablat	equ	0xFF5
  4676                           prodh	equ	0xFF4
  4677                           prodl	equ	0xFF3
  4678                           indf0	equ	0xFEF
  4679                           postinc0	equ	0xFEE
  4680                           postdec0	equ	0xFED
  4681                           preinc0	equ	0xFEC
  4682                           plusw0	equ	0xFEB
  4683                           fsr0h	equ	0xFEA
  4684                           fsr0l	equ	0xFE9
  4685                           wreg	equ	0xFE8
  4686                           indf1	equ	0xFE7
  4687                           postinc1	equ	0xFE6
  4688                           postdec1	equ	0xFE5
  4689                           preinc1	equ	0xFE4
  4690                           plusw1	equ	0xFE3
  4691                           fsr1h	equ	0xFE2
  4692                           fsr1l	equ	0xFE1
  4693                           bsr	equ	0xFE0
  4694                           indf2	equ	0xFDF
  4695                           postinc2	equ	0xFDE
  4696                           postdec2	equ	0xFDD
  4697                           preinc2	equ	0xFDC
  4698                           plusw2	equ	0xFDB
  4699                           fsr2h	equ	0xFDA
  4700                           fsr2l	equ	0xFD9
  4701                           status	equ	0xFD8

Data Sizes:
    Strings     68
    Constant    16
    Data        60
    BSS         17
    Persistent  0
    Stack       0

Auto Spaces:
    Space          Size  Autos    Used
    COMRAM          126     29     106
    BANK0           128      0       0
    BANK1           256      0       0
    BANK2           256      0       0
    BANK3           256      0       0
    BANK4           256      0       0
    BANK5           256      0       0
    BANK6           256      0       0
    BANK7           256      0       0
    BANK8           256      0       0
    BANK9           256      0       0
    BANK10          256      0       0
    BANK11          256      0       0
    BANK12          256      0       0
    BANK13          256      0       0
    BANK14          256      0       0
    BANK15          128      0       0

Pointer List with Targets:

    f$.$buffer	PTR unsigned char  size(2) Largest target is 0

    f$.$source	PTR const unsigned char  size(2) Largest target is 0

    gpio_pin__initialize@_pin_config	PTR const struct . size(1) Largest target is 8
		 -> key_pad(COMRAM[8]), key_pad$keypad_row_pins(COMRAM[4]), lcd_1(COMRAM[6]), lcd_1$lcd_data(COMRAM[4]), 
		 -> seg_1(COMRAM[5]), seg_1$segment_pins(COMRAM[4]), 

    gpio_pin_direction_initialize@_pin_config	PTR const struct . size(1) Largest target is 8
		 -> key_pad(COMRAM[8]), key_pad$keypad_column_pins(COMRAM[4]), key_pad$keypad_row_pins(COMRAM[4]), lcd_1(COMRAM[6]), 
		 -> lcd_1$lcd_data(COMRAM[4]), seg_1(COMRAM[5]), seg_1$segment_pins(COMRAM[4]), 

    gpio_pin_read_logic@_pin_config	PTR const struct . size(1) Largest target is 8
		 -> key_pad(COMRAM[8]), key_pad$keypad_column_pins(COMRAM[4]), 

    gpio_pin_read_logic@logic	PTR enum E2978 size(1) Largest target is 1
		 -> keypad_get_value@column_logic(COMRAM[1]), 

    gpio_pin_write_logic@_pin_config	PTR const struct . size(1) Largest target is 8
		 -> key_pad(COMRAM[8]), key_pad$keypad_row_pins(COMRAM[4]), lcd_1(COMRAM[6]), lcd_1$lcd_data(COMRAM[4]), 
		 -> seg_1(COMRAM[5]), seg_1$segment_pins(COMRAM[4]), 

    keypad_get_value@_keypad_obj	PTR const struct . size(1) Largest target is 8
		 -> key_pad(COMRAM[8]), 

    keypad_get_value@value	PTR unsigned char  size(1) Largest target is 1
		 -> digit_one(COMRAM[1]), digit_two(COMRAM[1]), keypad_Value(COMRAM[1]), 

    keypad_initialize@_keypad_obj	PTR const struct . size(1) Largest target is 8
		 -> key_pad(COMRAM[8]), 

    lat_reg	PTR volatile unsigned char [5] size(2) Largest target is 1
		 -> LATA(BITBIGSFRll[1]), LATB(BITBIGSFRlh[1]), LATC(BITBIGSFRlh[1]), LATD(BITBIGSFRlh[1]), 
		 -> LATE(BITBIGSFRlh[1]), 

    lcd_4bit_initialize@lcd	PTR const struct . size(1) Largest target is 6
		 -> lcd_1(COMRAM[6]), 

    lcd_4bit_send_char_data@lcd	PTR const struct . size(1) Largest target is 6
		 -> lcd_1(COMRAM[6]), 

    lcd_4bit_send_char_data_pos@lcd	PTR const struct . size(1) Largest target is 6
		 -> lcd_1(COMRAM[6]), 

    lcd_4bit_send_command@lcd	PTR const struct . size(1) Largest target is 6
		 -> lcd_1(COMRAM[6]), 

    lcd_4bit_send_string@lcd	PTR const struct . size(1) Largest target is 6
		 -> lcd_1(COMRAM[6]), 

    lcd_4bit_send_string@str	PTR unsigned char  size(1) Largest target is 21
		 -> STR_10(CODE[21]), STR_4(CODE[21]), STR_5(CODE[9]), STR_6(CODE[11]), 
		 -> STR_7(CODE[11]), STR_8(CODE[21]), STR_9(CODE[13]), 

    lcd_4bit_send_string_pos@lcd	PTR const struct . size(1) Largest target is 6
		 -> lcd_1(COMRAM[6]), 

    lcd_4bit_send_string_pos@str	PTR unsigned char  size(1) Largest target is 21
		 -> STR_10(CODE[21]), STR_4(CODE[21]), STR_5(CODE[9]), STR_6(CODE[11]), 
		 -> STR_7(CODE[11]), STR_8(CODE[21]), STR_9(CODE[13]), 

    lcd_4bits_set_cursor@lcd	PTR const struct . size(1) Largest target is 6
		 -> lcd_1(COMRAM[6]), 

    lcd_4bits_sned_enable_signal@lcd	PTR const struct . size(1) Largest target is 6
		 -> lcd_1(COMRAM[6]), 

    lcd_8bit_send_command@lcd	PTR const struct . size(1) Largest target is 6
		 -> lcd_1(COMRAM[6]), 

    lcd_8bits_sned_enable_signal@lcd	PTR const struct . size(1) Largest target is 6
		 -> lcd_1(COMRAM[6]), 

    lcd_send_4bits@lcd	PTR const struct . size(1) Largest target is 6
		 -> lcd_1(COMRAM[6]), 

    port_reg	PTR volatile unsigned char [5] size(2) Largest target is 1
		 -> PORTA(BITBIGSFRll[1]), PORTB(BITBIGSFRll[1]), PORTC(BITBIGSFRll[1]), PORTD(BITBIGSFRll[1]), 
		 -> PORTE(BITBIGSFRll[1]), 

    S1338$buffer	PTR unsigned char  size(2) Largest target is 0

    S1338$source	PTR const unsigned char  size(2) Largest target is 0

    S588$TMR0_InterruptHandler	PTR FTN()void  size(2) Largest target is 1
		 -> Interrupt_handler(), 

    sev_seg_initialize@seg	PTR const struct . size(1) Largest target is 5
		 -> seg_1(COMRAM[5]), 

    sp__memset	PTR void  size(2) Largest target is 0

    Timer0_Init@_timer	PTR const struct . size(1) Largest target is 7
		 -> timer_0(COMRAM[7]), 

    Timer0_Init@_timer$TMR0_InterruptHandler	PTR FTN()void  size(2) Largest target is 1
		 -> Interrupt_handler(), 

    Timer0_Mode_Select@_timer	PTR const struct . size(1) Largest target is 7
		 -> timer_0(COMRAM[7]), 

    Timer0_Mode_Select@_timer$TMR0_InterruptHandler	PTR FTN()void  size(2) Largest target is 1
		 -> Interrupt_handler(), 

    Timer0_Prescaler_Config@_timer	PTR const struct . size(1) Largest target is 7
		 -> timer_0(COMRAM[7]), 

    Timer0_Prescaler_Config@_timer$TMR0_InterruptHandler	PTR FTN()void  size(2) Largest target is 1
		 -> Interrupt_handler(), 

    Timer0_Register_Size_Config@_timer	PTR const struct . size(1) Largest target is 7
		 -> timer_0(COMRAM[7]), 

    Timer0_Register_Size_Config@_timer$TMR0_InterruptHandler	PTR FTN()void  size(2) Largest target is 1
		 -> Interrupt_handler(), 

    timer_0$TMR0_InterruptHandler	PTR FTN()void  size(2) Largest target is 1
		 -> Interrupt_handler(), 

    TMR0_InterruptHandler	PTR FTN()void  size(2) Largest target is 1
		 -> Interrupt_handler(), NULL(), 

    tris_reg	PTR volatile unsigned char [5] size(2) Largest target is 1
		 -> TRISA(BITBIGSFRll[1]), TRISB(BITBIGSFRhll[1]), TRISC(BITBIGSFRhll[1]), TRISD(BITBIGSFRhll[1]), 
		 -> TRISE(BITBIGSFRhll[1]), 

    vfprintf$0	PTR struct _IO_FILE size(1) Largest target is 12
		 -> sprintf@f(COMRAM[12]), 

    vfprintf$1	PTR const unsigned char  size(1) Largest target is 3
		 -> STR_1(CODE[3]), STR_2(CODE[3]), STR_3(CODE[3]), 

    vfprintf$2	PTR PTR void  size(1) Largest target is 1
		 -> sprintf@ap(COMRAM[1]), 


Critical Paths under _main in COMRAM

    _main->_lcd_4bit_send_char_data_pos
    _main->_lcd_4bit_send_string_pos
    _lcd_4bit_send_string_pos->_lcd_4bits_set_cursor
    _lcd_4bit_send_string->_lcd_4bit_send_char_data
    _lcd_4bit_send_char_data_pos->_lcd_4bits_set_cursor
    _lcd_4bits_set_cursor->_lcd_4bit_send_command
    _lcd_4bit_send_char_data->_lcd_send_4bits
    _keypad_get_value->_gpio_pin_write_logic
    _gpio_port_write_logic->___awdiv
    _application_initialize->_lcd_4bit_initialize
    _sev_seg_initialize->_gpio_pin__initialize
    _lcd_4bit_initialize->_lcd_8bit_send_command
    _lcd_8bit_send_command->_lcd_8bits_sned_enable_signal
    _lcd_8bits_sned_enable_signal->_gpio_pin_write_logic
    _lcd_4bit_send_command->_lcd_send_4bits
    _lcd_send_4bits->_gpio_pin_write_logic
    _lcd_4bits_sned_enable_signal->_gpio_pin_write_logic
    _keypad_initialize->_gpio_pin__initialize
    _gpio_pin__initialize->_gpio_pin_write_logic
    _Timer0_Init->_Timer0_Prescaler_Config

Critical Paths under _InterruptManagerHigh in COMRAM

    None.

Critical Paths under _main in BANK0

    None.

Critical Paths under _InterruptManagerHigh in BANK0

    None.

Critical Paths under _main in BANK1

    None.

Critical Paths under _InterruptManagerHigh in BANK1

    None.

Critical Paths under _main in BANK2

    None.

Critical Paths under _InterruptManagerHigh in BANK2

    None.

Critical Paths under _main in BANK3

    None.

Critical Paths under _InterruptManagerHigh in BANK3

    None.

Critical Paths under _main in BANK4

    None.

Critical Paths under _InterruptManagerHigh in BANK4

    None.

Critical Paths under _main in BANK5

    None.

Critical Paths under _InterruptManagerHigh in BANK5

    None.

Critical Paths under _main in BANK6

    None.

Critical Paths under _InterruptManagerHigh in BANK6

    None.

Critical Paths under _main in BANK7

    None.

Critical Paths under _InterruptManagerHigh in BANK7

    None.

Critical Paths under _main in BANK8

    None.

Critical Paths under _InterruptManagerHigh in BANK8

    None.

Critical Paths under _main in BANK9

    None.

Critical Paths under _InterruptManagerHigh in BANK9

    None.

Critical Paths under _main in BANK10

    None.

Critical Paths under _InterruptManagerHigh in BANK10

    None.

Critical Paths under _main in BANK11

    None.

Critical Paths under _InterruptManagerHigh in BANK11

    None.

Critical Paths under _main in BANK12

    None.

Critical Paths under _InterruptManagerHigh in BANK12

    None.

Critical Paths under _main in BANK13

    None.

Critical Paths under _InterruptManagerHigh in BANK13

    None.

Critical Paths under _main in BANK14

    None.

Critical Paths under _InterruptManagerHigh in BANK14

    None.

Critical Paths under _main in BANK15

    None.

Critical Paths under _InterruptManagerHigh in BANK15

    None.

Call Graph Tables:

 ---------------------------------------------------------------------------------
 (Depth) Function   	        Calls       Base Space   Used Autos Params    Refs
 ---------------------------------------------------------------------------------
 (0) _main                                                 3     3      0  119181
                                             27 COMRAM     2     2      0
                            ___awdiv
                            ___awmod
             _application_initialize
              _gpio_port_write_logic
                   _keypad_get_value
        _lcd_4bit_send_char_data_pos
              _lcd_4bit_send_command
           _lcd_4bit_send_string_pos
 ---------------------------------------------------------------------------------
 (1) _lcd_4bit_send_string_pos                             5     1      4   29094
                                             22 COMRAM     5     1      4
               _lcd_4bit_send_string
               _lcd_4bits_set_cursor
 ---------------------------------------------------------------------------------
 (2) _lcd_4bit_send_string                                 3     1      2   12206
                                             16 COMRAM     3     1      2
            _lcd_4bit_send_char_data
 ---------------------------------------------------------------------------------
 (1) _lcd_4bit_send_char_data_pos                          5     1      4   28828
                                             22 COMRAM     5     1      4
            _lcd_4bit_send_char_data
               _lcd_4bits_set_cursor
 ---------------------------------------------------------------------------------
 (2) _lcd_4bits_set_cursor                                 6     3      3   14602
                                             16 COMRAM     6     3      3
              _lcd_4bit_send_command
 ---------------------------------------------------------------------------------
 (3) _lcd_4bit_send_char_data                              3     1      2   11940
                                             13 COMRAM     3     1      2
               _gpio_pin_write_logic
       _lcd_4bits_sned_enable_signal
                     _lcd_send_4bits
 ---------------------------------------------------------------------------------
 (1) _keypad_get_value                                     8     6      2    5198
                                             10 COMRAM     8     6      2
                _gpio_pin_read_logic
               _gpio_pin_write_logic
 ---------------------------------------------------------------------------------
 (2) _gpio_pin_read_logic                                  7     5      2     308
                                              2 COMRAM     7     5      2
 ---------------------------------------------------------------------------------
 (1) _gpio_port_write_logic                                5     4      1    1002
                                             10 COMRAM     5     4      1
                            ___awdiv (ARG)
                            ___awmod (ARG)
 ---------------------------------------------------------------------------------
 (1) _application_initialize                               1     1      0   39602
                        _Timer0_Init
     _gpio_port_direction_initialize
                  _keypad_initialize
                _lcd_4bit_initialize
                 _sev_seg_initialize
 ---------------------------------------------------------------------------------
 (2) _sev_seg_initialize                                   2     1      1    4888
                                             13 COMRAM     2     1      1
               _gpio_pin__initialize
 ---------------------------------------------------------------------------------
 (2) _lcd_4bit_initialize                                  4     3      1   28528
                                             18 COMRAM     4     3      1
               _gpio_pin__initialize
              _lcd_4bit_send_command
              _lcd_8bit_send_command
 ---------------------------------------------------------------------------------
 (3) _lcd_8bit_send_command                                6     4      2    9471
                                             12 COMRAM     6     4      2
               _gpio_pin_write_logic
       _lcd_8bits_sned_enable_signal
 ---------------------------------------------------------------------------------
 (4) _lcd_8bits_sned_enable_signal                         2     1      1    3592
                                             10 COMRAM     2     1      1
               _gpio_pin_write_logic
 ---------------------------------------------------------------------------------
 (3) _lcd_4bit_send_command                                3     1      2   13916
                                             13 COMRAM     3     1      2
               _gpio_pin_write_logic
       _lcd_4bits_sned_enable_signal
                     _lcd_send_4bits
 ---------------------------------------------------------------------------------
 (4) _lcd_send_4bits                                       3     1      2    4182
                                             10 COMRAM     3     1      2
               _gpio_pin_write_logic
 ---------------------------------------------------------------------------------
 (4) _lcd_4bits_sned_enable_signal                         2     1      1    3728
                                             10 COMRAM     1     0      1
               _gpio_pin_write_logic
 ---------------------------------------------------------------------------------
 (2) _keypad_initialize                                    4     3      1    5311
                                             13 COMRAM     4     3      1
               _gpio_pin__initialize
      _gpio_pin_direction_initialize
 ---------------------------------------------------------------------------------
 (3) _gpio_pin__initialize                                 3     2      1    4674
                                             10 COMRAM     3     2      1
      _gpio_pin_direction_initialize
               _gpio_pin_write_logic
 ---------------------------------------------------------------------------------
 (5) _gpio_pin_write_logic                                 8     6      2    3371
                                              2 COMRAM     8     6      2
 ---------------------------------------------------------------------------------
 (4) _gpio_pin_direction_initialize                        7     6      1     331
                                              2 COMRAM     7     6      1
 ---------------------------------------------------------------------------------
 (2) _gpio_port_direction_initialize                       5     4      1     166
                                              2 COMRAM     5     4      1
 ---------------------------------------------------------------------------------
 (2) _Timer0_Init                                          4     3      1     703
                                              4 COMRAM     4     3      1
                 _Timer0_Mode_Select
            _Timer0_Prescaler_Config
        _Timer0_Register_Size_Config
 ---------------------------------------------------------------------------------
 (3) _Timer0_Register_Size_Config                          1     0      1     120
                                              2 COMRAM     1     0      1
 ---------------------------------------------------------------------------------
 (3) _Timer0_Prescaler_Config                              2     1      1     142
                                              2 COMRAM     2     1      1
 ---------------------------------------------------------------------------------
 (3) _Timer0_Mode_Select                                   1     0      1     164
                                              2 COMRAM     1     0      1
 ---------------------------------------------------------------------------------
 (1) ___awmod                                              6     2      4     752
                                              2 COMRAM     6     2      4
 ---------------------------------------------------------------------------------
 (1) ___awdiv                                              8     4      4     756
                                              2 COMRAM     8     4      4
 ---------------------------------------------------------------------------------
 Estimated maximum stack depth 5
 ---------------------------------------------------------------------------------
 (Depth) Function   	        Calls       Base Space   Used Autos Params    Refs
 ---------------------------------------------------------------------------------
 (6) _InterruptManagerHigh                                 2     2      0       0
                                              0 COMRAM     2     2      0
                           _TMR0_ISR
 ---------------------------------------------------------------------------------
 (7) _TMR0_ISR                                             0     0      0       0
                                NULL *
                  _Interrupt_handler *
 ---------------------------------------------------------------------------------
 (8) _Interrupt_handler                                    0     0      0       0
 ---------------------------------------------------------------------------------
 (8) NULL(Fake)                                            0     0      0       0
 ---------------------------------------------------------------------------------
 Estimated maximum stack depth 8
 ---------------------------------------------------------------------------------

 Call Graph Graphs:

 _main (ROOT)
   ___awdiv
   ___awmod
   _application_initialize
     _Timer0_Init
       _Timer0_Mode_Select
       _Timer0_Prescaler_Config
       _Timer0_Register_Size_Config
     _gpio_port_direction_initialize
     _keypad_initialize
       _gpio_pin__initialize
         _gpio_pin_direction_initialize
         _gpio_pin_write_logic
       _gpio_pin_direction_initialize
     _lcd_4bit_initialize
       _gpio_pin__initialize
       _lcd_4bit_send_command
         _gpio_pin_write_logic
         _lcd_4bits_sned_enable_signal
           _gpio_pin_write_logic
         _lcd_send_4bits
           _gpio_pin_write_logic
       _lcd_8bit_send_command
         _gpio_pin_write_logic
         _lcd_8bits_sned_enable_signal
           _gpio_pin_write_logic
     _sev_seg_initialize
       _gpio_pin__initialize
   _gpio_port_write_logic
     ___awdiv (ARG)
     ___awmod (ARG)
   _keypad_get_value
     _gpio_pin_read_logic
     _gpio_pin_write_logic
   _lcd_4bit_send_char_data_pos
     _lcd_4bit_send_char_data
       _gpio_pin_write_logic
       _lcd_4bits_sned_enable_signal
       _lcd_send_4bits
     _lcd_4bits_set_cursor
       _lcd_4bit_send_command
   _lcd_4bit_send_command
   _lcd_4bit_send_string_pos
     _lcd_4bit_send_string
       _lcd_4bit_send_char_data
     _lcd_4bits_set_cursor

 _InterruptManagerHigh (ROOT)
   _TMR0_ISR
     NULL(Fake) *
     _Interrupt_handler *

 Address spaces:
Name               Size   Autos  Total    Cost      Usage
BIGRAM             F7F      0       0      42        0.0%
EEDATA             400      0       0       0        0.0%
BITBANK14          100      0       0      32        0.0%
BANK14             100      0       0      33        0.0%
BITBANK13          100      0       0      30        0.0%
BANK13             100      0       0      31        0.0%
BITBANK12          100      0       0      28        0.0%
BANK12             100      0       0      29        0.0%
BITBANK11          100      0       0      26        0.0%
BANK11             100      0       0      27        0.0%
BITBANK10          100      0       0      24        0.0%
BANK10             100      0       0      25        0.0%
BITBANK9           100      0       0      22        0.0%
BANK9              100      0       0      23        0.0%
BITBANK8           100      0       0      20        0.0%
BANK8              100      0       0      21        0.0%
BITBANK7           100      0       0      18        0.0%
BANK7              100      0       0      19        0.0%
BITBANK6           100      0       0      16        0.0%
BANK6              100      0       0      17        0.0%
BITBANK5           100      0       0      14        0.0%
BANK5              100      0       0      15        0.0%
BITBANK4           100      0       0      12        0.0%
BANK4              100      0       0      13        0.0%
BITBANK3           100      0       0      10        0.0%
BANK3              100      0       0      11        0.0%
BITBANK2           100      0       0       8        0.0%
BANK2              100      0       0       9        0.0%
BITBANK1           100      0       0       6        0.0%
BANK1              100      0       0       7        0.0%
BITBANK15           80      0       0      34        0.0%
BANK15              80      0       0      35        0.0%
BITBANK0            80      0       0       4        0.0%
BANK0               80      0       0       5        0.0%
BITCOMRAM           7E      0       0       0        0.0%
COMRAM              7E     1D      6A       1       84.1%
BITBIGSFRhll        3E      0       0      38        0.0%
BITBIGSFRhlhh       1A      0       0      37        0.0%
BITBIGSFRhh          D      0       0      36        0.0%
BITBIGSFRlh          4      0       0      39        0.0%
BITBIGSFRll          4      0       0      40        0.0%
BIGSFR               0      0       0     200        0.0%
BITSFR               0      0       0     200        0.0%
SFR                  0      0       0     200        0.0%
STACK                0      0       0       2        0.0%
NULL                 0      0       0       0        0.0%
ABS                  0      0      6A      41        0.0%
DATA                 0      0      6A       3        0.0%
CODE                 0      0       0       0        0.0%


Microchip Technology PIC18 Macro Assembler V2.45 build 20230818022343 
Symbol Table                                                                                   Thu Sep 12 23:54:08 2024

                         ?_lcd_send_4bits 0047                                        l33 1994  
                                      l19 1E36                                        l64 18B6  
                                      l74 1F46                                        l92 21BE  
                                      l69 1F9E                                        l79 2184  
                                      l87 1EEE                              ___awdiv@sign 0044  
                                     l113 1D58                                       l203 2088  
                       _Interrupt_handler 2310                                       l302 210C  
                                     l312 20CA                                       l410 1DCE  
                                     l171 230E                                       l174 22EC  
                                     l264 16C0                                       l168 2040  
                                     l409 1DCE                                       l417 21F8  
                                     l329 1E94                                       l290 1C54  
                                     l194 1BB0                                       l371 1CE2  
                                     l283 17D0                                       l369 1C6E  
                                     l733 1A58                                       l399 1FF0  
                                     l746 1B08                                       l499 22C6  
                    keypad_initialize@ret 004B                    ??_InterruptManagerHigh 003D  
                                     _min 0065                                       _sec 0066  
                            ___awmod@sign 0044                        ?_Interrupt_handler 003D  
                                     tosl 0FFD                                       wreg 0FE8  
             lcd_send_4bits@_data_command 0048                                      l2300 15D8  
                                    l3100 12FC                                      l3020 107A  
                                    l3012 1056                                      l2302 162E  
                                    l3110 1330                                      l3102 1308  
                                    l3030 10D4                                      l3022 1084  
                                    l3014 1056                                      l3200 17B8  
                                    l2320 2002                                      l2400 1F08  
                                    l3120 138C                                      l3112 1340  
                                    l3104 130C                                      l3040 1120  
                                    l3032 10E2                                      l3024 10A0  
                                    l3016 105A                                      l2410 1FBA  
                                    l3202 16A8                                      l2306 167E  
                                    l2330 22EE                                      l2322 2014  
                                    l2402 1F44                                      l3130 13E8  
                                    l3122 139C                                      l3114 1356  
                                    l3106 1310                                      l3050 117E  
                                    l3042 113C                                      l3034 10EC  
                                    l3026 10AE                                      l3018 106E  
                                    l2420 1D78                                      l2412 1FD6  
                                    l2308 16BE                                      l2332 22FA  
                                    l2324 2028                                      l2316 1FF2  
                                    l2340 22C8                                      l2500 1812  
                                    l3140 1420                                      l3132 13EC  
                                    l3124 13B2                                      l3116 136A  
                                    l3108 1324                                      l3060 11C8  
                                    l3052 1188                                      l3044 114A  
                                    l3036 1108                                      l3028 10B8  
                                    l2430 1DC8                                      l2422 1D90  
                                    l2414 1FEE                                      l2406 1FA0  
                                    l2350 1E38                                      l2334 2302  
                                    l2318 1FF2                                      l2342 22D4  
                                    l2510 1858                                      l2502 1814  
                                    l3150 147C                                      l3142 1436  
                                    l3134 13F0                                      l3126 13C6  
                                    l3118 1380                                      l3070 11F4  
                                    l3062 11CA                                      l3054 11A4  
                                    l3046 1154                                      l3038 1116  
                                    l2424 1D92                                      l2416 1D5A  
                                    l2408 1FB8                                      l2432 21C0  
                                    l2280 1754                                      l2272 16C2  
                                    l2352 1E48                                      l2440 1DD0  
                                    l2328 22EE                                      l2344 22DC  
                                    l2520 188E                                      l2512 185E  
                                    l2504 1824                                      l3160 14CC  
                                    l3152 1492                                      l3144 144A  
                                    l3136 1404                                      l3128 13DC  
                                    l3080 1244                                      l3072 11F8  
                                    l3064 11DC                                      l3056 11B2  
                                    l3048 1170                                      l2426 1DAA  
                                    l2418 1D72                                      l2434 21D8  
                                    l2610 210A                                      l2602 20CE  
                                    l2274 16D6                                      l2354 1E68  
                                    l2450 1DF4                                      l2442 1DE8  
                                    l2362 1F48                                      l2346 22EA  
                                    l2338 22C8                                      l2522 189A  
                                    l2514 186A                                      l2506 1832  
                                    l2530 1B0A                                      l3162 14D0  
                                    l3154 14A6                                      l3146 1460  
                                    l3138 1410                                      l3090 12A0  
                                    l3082 1250                                      l3170 150E  
                                    l3074 1208                                      l3066 11E0  
                                    l3058 11C4                                      l2428 1DB0  
                                    l2436 21DE                                      l2620 1C88  
                                    l2604 20D2                                      l2284 17A4  
                                    l2276 16F6                                      l2356 1E70  
                                    l2452 1DFE                                      l2444 1DF0  
                                    l2364 1F58                                      l2372 1CE4  
                                    l2524 18A6                                      l2516 1876  
                                    l2508 183E                                      l2540 1B5C  
                                    l2532 1B0E                                      l2700 2182  
                                    l3180 1566                                      l3172 151A  
                                    l3164 14D4                                      l3156 14BC  
                                    l3148 146C                                      l3092 12AC  
                                    l3084 1260                                      l3076 121A  
                                    l3068 11E2                                      l2438 21F6  
                                    l2630 1CC8                                      l2622 1C9A  
                                    l2614 1C56                                      l2606 20E2  
                                    l2294 159C                                      l2278 16FE  
                                    l2286 17CE                                      l2358 1E92  
                                    l2462 1E14                                      l2454 1E00  
                                    l2366 1F60                                      l2390 1D4C  
                                    l2374 1CF8                                      l2518 1882  
                                    l2526 18B4                                      l2534 1B14  
                                    l2542 1B74                                      l2710 21AE  
                                    l3182 157C                                      l3174 1530  
                                    l3166 14E0                                      l3158 14C8  
                                    l3094 12BC                                      l3086 1276  
                                    l3078 1230                                      l2800 1A2C  
                                    l2632 1CD6                                      l2624 1CB6  
                                    l2640 1CE0                                      l2616 1C66  
                                    l2608 20EA                                      l2296 15B0  
                                    l2464 1E22                                      l2456 1E10  
                                    l2368 1F9C                                      l2384 1D10  
                                    l2392 1D56                                      l2376 1D00  
                                    l2480 1BFE                                      l2472 1BB2  
                                    l2536 1B2C                                      l2544 1BAE  
                                    l2560 1ECE                                      l2552 1E96  
                                    l2712 21BC                                      l2704 2186  
                                    l3184 1590                                      l3176 1544  
                                    l3168 14F6                                      l3096 12D2  
                                    l3088 128A                                      l2802 1A32  
                                    l2634 1CD8                                      l2626 1CC4  
                                    l2618 1C70                                      l2298 15D0  
                                    l2466 1E24                                      l2386 1D3A  
                                    l2378 1D0C                                      l2490 17EE  
                                    l2482 1C52                                      l2474 1BC6  
                                    l2650 18F0                                      l2538 1B44  
                                    l2562 1EEC                                      l2554 1EAA  
                                    l2706 2196                                      l3178 155A  
                                    l3098 12E6                                      l2804 1A38  
                                    l2820 1A78                                      l2812 1A5A  
                                    l2636 1CDA                                      l2628 1CC6  
                                    l2468 1E34                                      l2388 1D3C  
                                    l2492 1802                                      l2476 1BD6  
                                    l2644 18B8                                      l2396 1EF0  
                                    l2556 1EB2                                      l2708 219E  
                                    l2806 1A48                                      l2830 1AB0  
                                    l2822 1A86                                      l2814 1A5E  
                                    l2638 1CDC                                      l2486 17D2  
                                    l2750 20A8                                      l2478 1BF6  
                                    l2670 1926                                      l2662 18F8  
                                    l2646 18D8                                      l2398 1F00  
                                    l3198 1B88                                      l2558 1ECC  
                                    l2808 1A50                                      l2832 1ABE  
                                    l2840 1AE8                                      l2824 1A8E  
                                    l2816 1A6C                                      l2488 17E6  
                                    l2592 2042                                      l2760 22A4  
                                    l2752 20C8                                      l2744 208C  
                                    l2680 194C                                      l2664 1906  
                                    l2656 18F4                                      l2648 18E8  
                                    l2770 199A                                      l2842 1AF8  
                                    l2834 1AD4                                      l2826 1AA0  
                                    l2818 1A74                                      l2498 1806  
                                    l2594 2052                                      l2762 22AC  
                                    l2746 2090                                      l2682 196E  
                                    l2666 1908                                      l2690 1992  
                                    l2780 19CA                                      l2772 19A8  
                                    l2844 1B00                                      l2836 1ADC  
                                    l2828 1AA8                                      l2596 205A  
                                    l2764 22B4                                      l2756 229C  
                                    l2748 20A0                                      l2684 1970  
                                    l2676 192A                                      l2668 1918  
                                    l2790 19F8                                      l2782 19CE  
                                    l2774 19B0                                      l2838 1AE2  
                                    l2598 2086                                      l2766 22BC  
                                    l2758 229C                                      l2686 1980  
                                    l2678 193C                                      l2694 214A  
                                    l2792 1A06                                      l2784 19D6  
                                    l2776 19B4                                      l2768 1996  
                                    l2688 1982                                      l2696 215A  
                                    l2794 1A0C                                      l2786 19E8  
                                    l2778 19C2                                      l2698 2162  
                                    l2796 1A22                                      l2788 19F0  
                                    l2798 1A2A                                      STR_1 1052  
                                    STR_4 1011                                      STR_5 1049  
                                    STR_6 103E                                      STR_7 1033  
                                    STR_8 1011                                      STR_9 1026  
                                    u1200 15B0                                      u2000 1260  
                                    u1201 15AC                                      u2001 125C  
                                    u1210 15D0                                      u2010 12BC  
                                    u1211 15CC                                      u2011 12B8  
                                    u2020 1340                                      u2021 133C  
                                    u1310 1D4C                                      u2030 139C  
                                    u1311 1D48                                      u2031 1398  
                                    u1400 21F6                                      u1240 1694  
                                    u1224 15F6                                      u1160 16D6  
                                    u1304 1D2A                                      u1320 1F00  
                                    u2040 1420        lcd_8bit_send_command@l_pin_counter 004E  
                                    u1401 21F2                                      u1241 168E  
                                    u1225 15F2                                      u1161 16D2  
                                    u1305 1D26                                      u1321 1EFC  
                                    u2041 141C                                      u1330 1FB8  
                                    u1250 1696                                      u1234 164C  
                                    u1170 16F6                                      u1410 1DE8  
                                    u2050 147C                                      u1331 1FB4  
                                    u1235 1648                                      u1171 16F2  
                                    u1411 1DE4                                      u2051 1478  
                                    u2107 1176                                      u1340 1FEE  
                                    u1260 1E48                                      u1420 1E10  
                                    u1500 1EAA                                      u1341 1FEA  
                                    u1261 1E44                                      u1421 1E0C  
                                    u1501 1EA6                                      u2117 11AA  
                                    _LATA 0F89                                      u1350 1D72  
                                    u1270 1E68                                      u1430 1E34  
                                    u1510 1EEC                                      _LATB 0F8A  
                                    u1351 1D6E                                      u1271 1E64  
                                    u1431 1E30                                      u1511 1EE8  
                                    u2207 13D0                                      u2127 1224  
                                    _LATC 0F8B                                      u1360 1D90  
                                    u1184 171C                                      u1280 1F58  
                                    u1440 1BC6                                      u1600 1918  
                                    _LATD 0F8C                                      u1361 1D8C  
                                    u1185 1718                                      u1281 1F54  
                                    u1441 1BC2                                      u1601 1914  
                                    u2217 142A                                      u2137 126A  
                                    _LATE 0F8D                                      u1370 1DAA  
                                    u1194 1772                                      u1290 1CF8  
                                    u1450 1BD6                                      u1610 194C  
                                    u1371 1DA6                                      u1195 176E  
                                    u1291 1CF4                                      u2307 1844  
                                    u1451 1BD2                                      u1611 1948  
                                    u2227 1454                                      u2147 1294  
                                    u2067 10A6                                      u1700 19A8  
                                    u1380 1DC8                                      u1460 1BF6  
                                    u1620 1980                                      u1701 19A4  
                                    u1381 1DC4                                      u2317 185A  
                                    u1461 1BF2                                      u1621 197C  
                                    u2237 1486                                      u2157 12C6  
                                    u2077 10DA                                      u1710 19C2  
                                    u1390 21D8                                      u1550 2052  
                                    u1630 1992                                      u1711 19BE  
                                    u1391 21D4                                      u2327 22D6  
                                    u1551 204E                                      u1631 198E  
                                    u2247 14B0                                      u2167 12F0  
                                    u2087 110E                                      u1720 19E8  
                                    u1800 1AD4                                      u1560 20E2  
                                    u1480 17E6                                      u1640 215A  
                                    u1721 19E4                                      u1801 1AD0  
                                    u1561 20DE                                      u2337 22FC  
                                    u1481 17E2                                      u1641 2156  
                                    u2257 14EA                                      u2177 134A  
                                    u2097 1142                                      u1730 1A06  
                                    u1810 1AF8                                      u1570 1C66  
                                    u1490 1824                                      u1474 1C46  
                                    u1650 2196                                      u1731 1A02  
                                    u1811 1AF4                                      u1571 1C62  
                                    u1491 1820                                      u1475 1C42  
                                    u1651 2192                                      u2267 1524  
                                    u2187 1374                                      u1740 1A22  
                                    u1580 18D8                                      u1741 1A1E  
                                    u1581 18D4                                      u2277 154E  
                                    u2197 13A6                                      u1750 1A48  
                                    u1590 18E8                                      u1751 1A44  
                                    u1591 18E4                                      u2287 1570  
                                    u1760 1A6C                                      u1761 1A68  
                                    u2297 182A                                      u1770 1A86  
                                    u1690 20A0                                      u1771 1A82  
                                    u1691 209C                                      u1780 1AA0  
                                    u1781 1A9C                                      u1790 1ABE  
                                    u1950 11C4                                      u1791 1ABA  
                                    u1951 11C0                                      u1960 11DC  
                                    u1961 11D8                                      u1970 11F4  
                                    u1971 11F0                                      u1980 1208  
                                    u1981 1204                                      u1990 121A  
                                    u1991 1216                       ??_Interrupt_handler 003D  
                    _lcd_4bit_send_string 1E96            gpio_pin_read_logic@_pin_config 003F  
                                    _main 1056                                      _hour 0064  
         gpio_pin__initialize@_pin_config 0047                                      fsr1h 0FE2  
                                    fsr2h 0FDA                                      indf1 0FE7  
                                    indf2 0FDF                                      fsr1l 0FE1  
                                    fsr2l 0FD9                                      btemp 006B  
       lcd_4bit_send_char_data_pos@column 0055                                      prodl 0FF3  
                                    start 000E             __end_of_lcd_8bit_send_command 1D5A  
                            ___param_bank 0000                     _lcd_4bit_send_command 1F48  
                   _gpio_port_write_logic 208A                      _gpio_pin_write_logic 16C2  
          lcd_4bit_send_string_pos@column 0055                 __end_of_Interrupt_handler 2314  
                                   ?_main 003D                  ??_application_initialize 0053  
                         __end_of___awdiv 1A5A                                     STR_10 1011  
                         __end_of___awmod 1B0A                           ___awdiv@divisor 0041  
                                   i2l460 2312                                     i2l348 225A  
                                   i2l392 229A                           ___awdiv@counter 0043  
                                   _TMR0H 0FD7                                     _TMR0L 0FD6  
                                   _PORTA 0F80                                     _PORTB 0F81  
                                   _PORTC 0F82                                     _PORTD 0F83  
                                   _PORTE 0F84                                     _TRISA 0F92  
                                   _TRISB 0F93                                     _TRISC 0F94  
                                   _TRISD 0F95                                     _TRISE 0F96  
                       Timer0_Init@_timer 0041                  __end_of_keypad_get_value 1996  
                        __end_of_TMR0_ISR 229C                                     _lcd_1 0032  
                                   _seg_1 0038                     ?_lcd_4bit_send_string 004D  
                                   pclath 0FFA                                     pclatu 0FFB  
                                   tablat 0FF5                                     ttemp5 006C  
                                   ttemp6 006F                                     ttemp7 0073  
                                   status 0FD8                                     wtemp8 006C  
                 _Timer0_Prescaler_Config 1FA0         keypad_get_value@l_columns_counter 004E  
          ?_gpio_pin_direction_initialize 003F                           __initialization 21FA  
                     keypad_get_value@ret 004A                              __end_of_main 159C  
                   ?_gpio_pin_write_logic 003F                  gpio_pin_read_logic@logic 0040  
                                  ??_main 0058                             __activetblptr 0003  
                        ___awdiv@dividend 003F                                    i2l2044 223A  
                                  i2l2046 2248                                    i2l2048 2256  
                                  i2l1560 2310                                    i2l1680 226C  
                                  i2l1682 2270                                    i2l1684 2282  
                                  i2l1676 2266                                    i2l1678 2268  
               keypad_get_value@l_counter 004C                 gpio_port_write_logic@port 004B  
        __end_of_lcd_4bit_send_string_pos 21C0    __end_of_gpio_port_direction_initialize 210E  
          _gpio_port_direction_initialize 20CC                             ??_Timer0_Init 0042  
                  ?_lcd_4bit_send_command 004A                    ?_gpio_port_write_logic 0047  
            ?_Timer0_Register_Size_Config 003F                                 ??___awdiv 0043  
                               ??___awmod 0043         Timer0_Register_Size_Config@_timer 003F  
          ??_lcd_8bits_sned_enable_signal 0048                                    clear_0 2220  
                        ___awdiv@quotient 0045                           ___awmod@divisor 0041  
                                  isa$std 0001                           ___awmod@counter 0043  
                            __pdataCOMRAM 0001                              __mediumconst 0000  
                                  tblptrh 0FF7                                    tblptrl 0FF6  
                                  tblptru 0FF8                        _sev_seg_initialize 2042  
                  ??_lcd_4bit_send_string 004F                              _lcd1_counter 0067  
               ??_Timer0_Prescaler_Config 0040           lcd_8bits_sned_enable_signal@lcd 0047  
         lcd_8bits_sned_enable_signal@ret 0048                                __accesstop 0080  
                 __end_of__initialization 2226                       ?_sev_seg_initialize 004A  
              lcd_4bits_set_cursor@column 004F                             ___rparam_used 0001  
                        ??_lcd_send_4bits 0049                   _lcd_4bit_send_char_data 1EF0  
                  ??_gpio_pin_write_logic 0041                            __pcstackCOMRAM 003D  
                               ?_TMR0_ISR 003D             ??_Timer0_Register_Size_Config 0040  
            convert_short_to_string@F3208 005A                       __end_of_Timer0_Init 1CE4  
                lcd_4bit_send_command@lcd 004A                  lcd_4bit_send_command@ret 004C  
                    ??_sev_seg_initialize 004B  gpio_pin_direction_initialize@_pin_config 003F  
                gpio_port_write_logic@ret 004A              ?_lcd_4bit_send_char_data_pos 0053  
                 lcd_4bit_send_string@lcd 004D                   lcd_4bit_send_string@ret 004F  
                 lcd_4bit_send_string@str 004E                   gpio_pin__initialize@ret 0049  
                  _application_initialize 229C              __end_of_lcd_4bits_set_cursor 1BB2  
         lcd_4bits_sned_enable_signal@lcd 0047                                ??_TMR0_ISR 003D  
               ?_lcd_4bit_send_string_pos 0053                                   i2u55_40 2282  
                                 i2u55_41 227E                                   i2u56_48 2288  
                                 i2u56_49 229A                         ?_keypad_get_value 0047  
                                 i2u99_40 2248                                   i2u99_41 2244  
                      ??_keypad_get_value 0049                                _btn_values 1001  
               ??_lcd_4bit_send_char_data 004C    lcd_4bit_initialize@l_data_pins_counter 0051  
                                 __Hparam 0000                               _Timer0_Init 1C56  
                                 __Lparam 0000                     _lcd_8bit_send_command 1CE4  
                     _gpio_pin_read_logic 1BB2                                   ___awdiv 1996  
                                 ___awmod 1A5A          keypad_initialize@columns_counter 004D  
                            __psmallconst 1000                                   __pcinit 21FA  
                                 __ramtop 1000                                   __ptext0 1056  
                                 __ptext1 2186                                   __ptext2 1E96  
                                 __ptext3 214A                                   __ptext4 1B0A  
                                 __ptext5 1EF0                                   __ptext6 18B8  
                                 __ptext7 1BB2                                   __ptext8 208A  
                                 __ptext9 229C                                 _T0CONbits 0FD5  
                                 _lat_reg 000B           ??_gpio_pin_direction_initialize 0040  
                                 _key_pad 0023                          ___awmod@dividend 003F  
                                 _timer_0 002B                   lcd_4bits_set_cursor@lcd 004D  
                 lcd_4bits_set_cursor@ret 0052                   lcd_4bits_set_cursor@row 004E  
            __end_of_gpio_pin__initialize 1E96                      ?_gpio_pin_read_logic 003F  
                          __pintcode_body 2230                      end_of_initialization 2226  
                       lcd_send_4bits@lcd 0047                         lcd_send_4bits@ret 0049  
                    fp__Interrupt_handler 0000         gpio_port_direction_initialize@ret 0042  
                                 int_func 2230                   ??_lcd_4bit_send_command 004C  
                 ??_gpio_port_write_logic 0048                                   postdec1 0FE5  
                                 postdec2 0FDD                                   postinc0 0FEE  
                                 postinc1 0FE6                                   postinc2 0FDE  
                     _lcd_4bit_initialize 17D2           __end_of_lcd_4bit_send_char_data 1F48  
                    _lcd_4bits_set_cursor 1B0A              keypad_get_value@column_logic 004B  
              lcd_4bit_send_char_data@lcd 004A                lcd_4bit_send_char_data@ret 004C  
           Timer0_Prescaler_Config@_timer 003F                     ??_gpio_pin_read_logic 0041  
         lcd_4bit_send_char_data_pos@data 0056                      ?_lcd_4bit_initialize 004F  
              __end_of_Timer0_Mode_Select 1DD0            ??_lcd_4bits_sned_enable_signal 0048  
                  ?_lcd_8bit_send_command 0049               lcd_4bit_send_string_pos@lcd 0053  
             lcd_4bit_send_string_pos@ret 0057               lcd_4bit_send_string_pos@row 0054  
             lcd_4bit_send_string_pos@str 0056                     keypad_get_value@value 0048  
 gpio_port_direction_initialize@direction 003F                             __pidataCOMRAM 210E  
                          _timer0_preload 0062                     ?_lcd_4bits_set_cursor 004D  
                     start_initialization 21FA     __end_of_gpio_pin_direction_initialize 16C2  
           _gpio_pin_direction_initialize 159C                   ?_application_initialize 003D  
                   ??_lcd_4bit_initialize 0050      __end_of_lcd_8bits_sned_enable_signal 22EE  
            _lcd_8bits_sned_enable_signal 22C8                      _gpio_pin__initialize 1E38  
            lcd_4bit_send_command@command 004B                  lcd_8bit_send_command@lcd 0049  
                lcd_8bit_send_command@ret 004D                               __pbssCOMRAM 005A  
          __end_of_application_initialize 22C8                  ?_Timer0_Prescaler_Config 003F  
           ?_lcd_8bits_sned_enable_signal 0047                     _TMR0_InterruptHandler 0060  
                            ?_Timer0_Init 0041              __end_of_InterruptManagerHigh 2266  
           keypad_initialize@rows_counter 004C       __end_of_Timer0_Register_Size_Config 21FA  
             _Timer0_Register_Size_Config 21C0                                 __pintcode 0008  
                               _digit_one 0069                                 _digit_two 0068  
         gpio_pin_write_logic@_pin_config 003F                                  ?___awdiv 003F  
                   ?_gpio_pin__initialize 0047                                  ?___awmod 003F  
                            _keypad_Value 006A                 gpio_pin_write_logic@logic 0040  
                  ??_lcd_4bits_set_cursor 0050                               __smallconst 1000  
                                _RB4_flag 0022                                  _RB5_flag 0021  
                                _RB6_flag 0020                                  _RB7_flag 001F  
                                i2u100_40 2256                                  i2u100_41 2252  
           __end_of_lcd_4bit_send_command 1FA0             __end_of_gpio_port_write_logic 20CC  
        gpio_pin_direction_initialize@ret 0045                                  _TMR0_ISR 2266  
                _lcd_4bit_send_string_pos 2186           __end_of_Timer0_Prescaler_Config 1FF2  
          lcd_4bit_send_char_data_pos@lcd 0053            lcd_4bit_send_char_data_pos@ret 0057  
          lcd_4bit_send_char_data_pos@row 0054       __end_of_lcd_4bit_send_char_data_pos 2186  
             _lcd_4bit_send_char_data_pos 214A                   gpio_pin_write_logic@ret 0046  
                ?_lcd_4bit_send_char_data 004A                                 copy_data0 220E  
                       _keypad_initialize 1DD0                        ?_keypad_initialize 004A  
                  gpio_pin_read_logic@ret 0045             ??_lcd_4bit_send_char_data_pos 0057  
                 ??_lcd_8bit_send_command 004B                                  __Hrparam 0000  
                                __Lrparam 0000                    ??_gpio_pin__initialize 0048  
                     ??_keypad_initialize 004B                        _Timer0_Mode_Select 1D5A  
                      __end_of_btn_values 1011               __end_of_gpio_pin_read_logic 1C56  
             keypad_get_value@_keypad_obj 0047                       ?_Timer0_Mode_Select 003F  
                    _InterruptManagerHigh 0008                 __end_of_keypad_initialize 1E38  
                                __ptext10 2042                                  __ptext11 17D2  
                                __ptext20 159C                                  __ptext12 1CE4  
                                __ptext21 20CC                                  __ptext13 22C8  
                                __ptext30 2310                                  __ptext22 1C56  
                                __ptext14 1F48                                  __ptext31 0000  
                                __ptext23 21C0                                  __ptext15 1FF2  
                                __ptext24 1FA0                                  __ptext16 22EE  
                                __ptext25 1D5A                                  __ptext17 1DD0  
                                __ptext26 1A5A                                  __ptext18 1E38  
                                __ptext27 1996                                  __ptext19 16C2  
                                __ptext29 2266                          _keypad_get_value 18B8  
                    ??_Timer0_Mode_Select 0040                                  isa$xinst 0000  
                                int$flags 006B                                  _port_reg 0001  
            __end_of_lcd_4bit_send_string 1EF0                                  _tris_reg 0015  
                          _lcd_send_4bits 1FF2                            Timer0_Init@ret 0044  
                Timer0_Mode_Select@_timer 003F                                _INTCONbits 0FF2  
             __end_of_lcd_4bit_initialize 18B8          ??_gpio_port_direction_initialize 0040  
         ?_gpio_port_direction_initialize 003F      __end_of_lcd_4bits_sned_enable_signal 2310  
            _lcd_4bits_sned_enable_signal 22EE                     ?_InterruptManagerHigh 003D  
      gpio_port_direction_initialize@port 0043            keypad_get_value@l_rows_counter 004D  
            __end_of_gpio_pin_write_logic 17D2                                  intlevel2 0000  
            keypad_initialize@_keypad_obj 004A                     sev_seg_initialize@seg 004A  
                   sev_seg_initialize@ret 004B                    __end_of_lcd_send_4bits 2042  
              __end_of_sev_seg_initialize 208A                gpio_port_write_logic@logic 0047  
           ?_lcd_4bits_sned_enable_signal 0047              lcd_8bit_send_command@command 004A  
             lcd_4bit_send_char_data@data 004B                ??_lcd_4bit_send_string_pos 0057  
                  lcd_4bit_initialize@lcd 004F                    lcd_4bit_initialize@ret 0052  
